
DriveSystemAlpha.elf:     file format elf32-avr

Sections:
Idx Name          Size      VMA       LMA       File off  Algn
  0 .data         00000034  00800200  000013d8  0000146c  2**0
                  CONTENTS, ALLOC, LOAD, DATA
  1 .text         000013d8  00000000  00000000  00000094  2**1
                  CONTENTS, ALLOC, LOAD, READONLY, CODE
  2 .bss          00000034  00800234  00800234  000014a0  2**0
                  ALLOC
  3 .comment      0000005c  00000000  00000000  000014a0  2**0
                  CONTENTS, READONLY
  4 .note.gnu.avr.deviceinfo 00000040  00000000  00000000  000014fc  2**2
                  CONTENTS, READONLY
  5 .debug_aranges 000000d8  00000000  00000000  0000153c  2**0
                  CONTENTS, READONLY, DEBUGGING
  6 .debug_info   00001587  00000000  00000000  00001614  2**0
                  CONTENTS, READONLY, DEBUGGING
  7 .debug_abbrev 00000fd2  00000000  00000000  00002b9b  2**0
                  CONTENTS, READONLY, DEBUGGING
  8 .debug_line   0000078e  00000000  00000000  00003b6d  2**0
                  CONTENTS, READONLY, DEBUGGING
  9 .debug_frame  0000028c  00000000  00000000  000042fc  2**2
                  CONTENTS, READONLY, DEBUGGING
 10 .debug_str    000007e2  00000000  00000000  00004588  2**0
                  CONTENTS, READONLY, DEBUGGING
 11 .debug_loc    000006ee  00000000  00000000  00004d6a  2**0
                  CONTENTS, READONLY, DEBUGGING
 12 .debug_ranges 00000098  00000000  00000000  00005458  2**0
                  CONTENTS, READONLY, DEBUGGING

Disassembly of section .text:

00000000 <__vectors>:
       0:	9e c0       	rjmp	.+316    	; 0x13e <__ctors_end>
       2:	00 00       	nop
       4:	bc c0       	rjmp	.+376    	; 0x17e <__bad_interrupt>
       6:	00 00       	nop
       8:	ba c0       	rjmp	.+372    	; 0x17e <__bad_interrupt>
       a:	00 00       	nop
       c:	b8 c0       	rjmp	.+368    	; 0x17e <__bad_interrupt>
       e:	00 00       	nop
      10:	b6 c0       	rjmp	.+364    	; 0x17e <__bad_interrupt>
      12:	00 00       	nop
      14:	b4 c0       	rjmp	.+360    	; 0x17e <__bad_interrupt>
      16:	00 00       	nop
      18:	b2 c0       	rjmp	.+356    	; 0x17e <__bad_interrupt>
      1a:	00 00       	nop
      1c:	b0 c0       	rjmp	.+352    	; 0x17e <__bad_interrupt>
      1e:	00 00       	nop
      20:	ae c0       	rjmp	.+348    	; 0x17e <__bad_interrupt>
      22:	00 00       	nop
      24:	ac c0       	rjmp	.+344    	; 0x17e <__bad_interrupt>
      26:	00 00       	nop
      28:	aa c0       	rjmp	.+340    	; 0x17e <__bad_interrupt>
      2a:	00 00       	nop
      2c:	a8 c0       	rjmp	.+336    	; 0x17e <__bad_interrupt>
      2e:	00 00       	nop
      30:	a6 c0       	rjmp	.+332    	; 0x17e <__bad_interrupt>
      32:	00 00       	nop
      34:	a4 c0       	rjmp	.+328    	; 0x17e <__bad_interrupt>
      36:	00 00       	nop
      38:	a2 c0       	rjmp	.+324    	; 0x17e <__bad_interrupt>
      3a:	00 00       	nop
      3c:	a0 c0       	rjmp	.+320    	; 0x17e <__bad_interrupt>
      3e:	00 00       	nop
      40:	9e c0       	rjmp	.+316    	; 0x17e <__bad_interrupt>
      42:	00 00       	nop
      44:	c9 c2       	rjmp	.+1426   	; 0x5d8 <__vector_17>
      46:	00 00       	nop
      48:	9a c0       	rjmp	.+308    	; 0x17e <__bad_interrupt>
      4a:	00 00       	nop
      4c:	98 c0       	rjmp	.+304    	; 0x17e <__bad_interrupt>
      4e:	00 00       	nop
      50:	96 c0       	rjmp	.+300    	; 0x17e <__bad_interrupt>
      52:	00 00       	nop
      54:	94 c0       	rjmp	.+296    	; 0x17e <__bad_interrupt>
      56:	00 00       	nop
      58:	92 c0       	rjmp	.+292    	; 0x17e <__bad_interrupt>
      5a:	00 00       	nop
      5c:	90 c0       	rjmp	.+288    	; 0x17e <__bad_interrupt>
      5e:	00 00       	nop
      60:	8e c0       	rjmp	.+284    	; 0x17e <__bad_interrupt>
      62:	00 00       	nop
      64:	65 c2       	rjmp	.+1226   	; 0x530 <__vector_25>
      66:	00 00       	nop
      68:	8a c0       	rjmp	.+276    	; 0x17e <__bad_interrupt>
      6a:	00 00       	nop
      6c:	88 c0       	rjmp	.+272    	; 0x17e <__bad_interrupt>
      6e:	00 00       	nop
      70:	86 c0       	rjmp	.+268    	; 0x17e <__bad_interrupt>
      72:	00 00       	nop
      74:	84 c0       	rjmp	.+264    	; 0x17e <__bad_interrupt>
      76:	00 00       	nop
      78:	82 c0       	rjmp	.+260    	; 0x17e <__bad_interrupt>
      7a:	00 00       	nop
      7c:	80 c0       	rjmp	.+256    	; 0x17e <__bad_interrupt>
      7e:	00 00       	nop
      80:	7e c0       	rjmp	.+252    	; 0x17e <__bad_interrupt>
      82:	00 00       	nop
      84:	7c c0       	rjmp	.+248    	; 0x17e <__bad_interrupt>
      86:	00 00       	nop
      88:	7a c0       	rjmp	.+244    	; 0x17e <__bad_interrupt>
      8a:	00 00       	nop
      8c:	78 c0       	rjmp	.+240    	; 0x17e <__bad_interrupt>
      8e:	00 00       	nop
      90:	76 c0       	rjmp	.+236    	; 0x17e <__bad_interrupt>
      92:	00 00       	nop
      94:	74 c0       	rjmp	.+232    	; 0x17e <__bad_interrupt>
      96:	00 00       	nop
      98:	72 c0       	rjmp	.+228    	; 0x17e <__bad_interrupt>
      9a:	00 00       	nop
      9c:	70 c0       	rjmp	.+224    	; 0x17e <__bad_interrupt>
      9e:	00 00       	nop
      a0:	6e c0       	rjmp	.+220    	; 0x17e <__bad_interrupt>
      a2:	00 00       	nop
      a4:	6c c0       	rjmp	.+216    	; 0x17e <__bad_interrupt>
      a6:	00 00       	nop
      a8:	6a c0       	rjmp	.+212    	; 0x17e <__bad_interrupt>
      aa:	00 00       	nop
      ac:	68 c0       	rjmp	.+208    	; 0x17e <__bad_interrupt>
      ae:	00 00       	nop
      b0:	66 c0       	rjmp	.+204    	; 0x17e <__bad_interrupt>
      b2:	00 00       	nop
      b4:	64 c0       	rjmp	.+200    	; 0x17e <__bad_interrupt>
      b6:	00 00       	nop
      b8:	62 c0       	rjmp	.+196    	; 0x17e <__bad_interrupt>
      ba:	00 00       	nop
      bc:	60 c0       	rjmp	.+192    	; 0x17e <__bad_interrupt>
      be:	00 00       	nop
      c0:	5e c0       	rjmp	.+188    	; 0x17e <__bad_interrupt>
      c2:	00 00       	nop
      c4:	5c c0       	rjmp	.+184    	; 0x17e <__bad_interrupt>
      c6:	00 00       	nop
      c8:	5a c0       	rjmp	.+180    	; 0x17e <__bad_interrupt>
      ca:	00 00       	nop
      cc:	58 c0       	rjmp	.+176    	; 0x17e <__bad_interrupt>
      ce:	00 00       	nop
      d0:	56 c0       	rjmp	.+172    	; 0x17e <__bad_interrupt>
      d2:	00 00       	nop
      d4:	54 c0       	rjmp	.+168    	; 0x17e <__bad_interrupt>
      d6:	00 00       	nop
      d8:	52 c0       	rjmp	.+164    	; 0x17e <__bad_interrupt>
      da:	00 00       	nop
      dc:	50 c0       	rjmp	.+160    	; 0x17e <__bad_interrupt>
      de:	00 00       	nop
      e0:	4e c0       	rjmp	.+156    	; 0x17e <__bad_interrupt>
      e2:	00 00       	nop
      e4:	05 a8       	ldd	r0, Z+53	; 0x35
      e6:	4c cd       	rjmp	.-1384   	; 0xfffffb80 <__eeprom_end+0xff7efb80>
      e8:	b2 d4       	rcall	.+2404   	; 0xa4e <strtok_r+0x30>
      ea:	4e b9       	out	0x0e, r20	; 14
      ec:	38 36       	cpi	r19, 0x68	; 104
      ee:	a9 02       	muls	r26, r25
      f0:	0c 50       	subi	r16, 0x0C	; 12
      f2:	b9 91       	ld	r27, Y+
      f4:	86 88       	ldd	r8, Z+22	; 0x16
      f6:	08 3c       	cpi	r16, 0xC8	; 200
      f8:	a6 aa       	std	Z+54, r10	; 0x36
      fa:	aa 2a       	or	r10, r26
      fc:	be 00       	.word	0x00be	; ????
      fe:	00 00       	nop
     100:	80 3f       	cpi	r24, 0xF0	; 240

00000102 <__trampolines_end>:
     102:	4e 41       	sbci	r20, 0x1E	; 30
     104:	4e 49       	Address 0x00000104 is out of bounds.
.word	0xffff	; ????

00000105 <pstr_inity>:
     105:	49 4e 49 54 59                                      INITY

0000010a <pstr_inf>:
     10a:	49 4e 46                                            INF

0000010d <pwr_m10>:
     10d:	cd cc cc 3d 0a d7 23 3c 17 b7 d1 38 77 cc 2b 32     ...=..#<...8w.+2
     11d:	95 95 e6 24 1f b1 4f 0a                             ...$..O.

00000125 <pwr_p10>:
     125:	00 00 20 41 00 00 c8 42 00 40 1c 46 20 bc be 4c     .. A...B.@.F ..L
     135:	ca 1b 0e 5a ae c5 9d 74 00                          ...Z...t.

0000013e <__ctors_end>:
     13e:	11 24       	eor	r1, r1
     140:	1f be       	out	0x3f, r1	; 63
     142:	cf ef       	ldi	r28, 0xFF	; 255
     144:	d1 e2       	ldi	r29, 0x21	; 33
     146:	de bf       	out	0x3e, r29	; 62
     148:	cd bf       	out	0x3d, r28	; 61
     14a:	00 e0       	ldi	r16, 0x00	; 0
     14c:	0c bf       	out	0x3c, r16	; 60

0000014e <__do_copy_data>:
     14e:	12 e0       	ldi	r17, 0x02	; 2
     150:	a0 e0       	ldi	r26, 0x00	; 0
     152:	b2 e0       	ldi	r27, 0x02	; 2
     154:	e8 ed       	ldi	r30, 0xD8	; 216
     156:	f3 e1       	ldi	r31, 0x13	; 19
     158:	00 e0       	ldi	r16, 0x00	; 0
     15a:	0b bf       	out	0x3b, r16	; 59
     15c:	02 c0       	rjmp	.+4      	; 0x162 <__do_copy_data+0x14>
     15e:	07 90       	elpm	r0, Z+
     160:	0d 92       	st	X+, r0
     162:	a4 33       	cpi	r26, 0x34	; 52
     164:	b1 07       	cpc	r27, r17
     166:	d9 f7       	brne	.-10     	; 0x15e <__do_copy_data+0x10>

00000168 <__do_clear_bss>:
     168:	22 e0       	ldi	r18, 0x02	; 2
     16a:	a4 e3       	ldi	r26, 0x34	; 52
     16c:	b2 e0       	ldi	r27, 0x02	; 2
     16e:	01 c0       	rjmp	.+2      	; 0x172 <.do_clear_bss_start>

00000170 <.do_clear_bss_loop>:
     170:	1d 92       	st	X+, r1

00000172 <.do_clear_bss_start>:
     172:	a8 36       	cpi	r26, 0x68	; 104
     174:	b2 07       	cpc	r27, r18
     176:	e1 f7       	brne	.-8      	; 0x170 <.do_clear_bss_loop>
     178:	57 d1       	rcall	.+686    	; 0x428 <main>
     17a:	0c 94 ea 09 	jmp	0x13d4	; 0x13d4 <_exit>

0000017e <__bad_interrupt>:
     17e:	40 cf       	rjmp	.-384    	; 0x0 <__vectors>

00000180 <avr_interrupt_timer_init>:
#include <avr/io.h>

void avr_interrupt_timer_init()
{
    // Timer one (used for interrupts)
    TCCR1B |= _BV(WGM12); // configure timer1 for CTC mode
     180:	e1 e8       	ldi	r30, 0x81	; 129
     182:	f0 e0       	ldi	r31, 0x00	; 0
     184:	80 81       	ld	r24, Z
     186:	88 60       	ori	r24, 0x08	; 8
     188:	80 83       	st	Z, r24
    TIMSK1 |= _BV(OCIE1A); // enable the CTC interrupt b
     18a:	af e6       	ldi	r26, 0x6F	; 111
     18c:	b0 e0       	ldi	r27, 0x00	; 0
     18e:	8c 91       	ld	r24, X
     190:	82 60       	ori	r24, 0x02	; 2
     192:	8c 93       	st	X, r24
    TCCR1B |= _BV(CS10) | _BV(CS12); // start the timer at 16MHz/1024
     194:	80 81       	ld	r24, Z
     196:	85 60       	ori	r24, 0x05	; 5
     198:	80 83       	st	Z, r24
    OCR1A = F_CLK_1024; // 100; // set the CTC compare value
     19a:	89 e0       	ldi	r24, 0x09	; 9
     19c:	9d e3       	ldi	r25, 0x3D	; 61
     19e:	90 93 89 00 	sts	0x0089, r25	; 0x800089 <__TEXT_REGION_LENGTH__+0x700089>
     1a2:	80 93 88 00 	sts	0x0088, r24	; 0x800088 <__TEXT_REGION_LENGTH__+0x700088>
     1a6:	08 95       	ret

000001a8 <avr_pwm_timer_init>:
}

void avr_pwm_timer_init()
{
    // Timer two (used for pwm)
    TCCR2A |= _BV(COM2A1) | _BV(COM2B1); // set none-inverting mode
     1a8:	e0 eb       	ldi	r30, 0xB0	; 176
     1aa:	f0 e0       	ldi	r31, 0x00	; 0
     1ac:	80 81       	ld	r24, Z
     1ae:	80 6a       	ori	r24, 0xA0	; 160
     1b0:	80 83       	st	Z, r24
    TCCR2A |= _BV(WGM10); // set PWN Phase Corrected
     1b2:	80 81       	ld	r24, Z
     1b4:	81 60       	ori	r24, 0x01	; 1
     1b6:	80 83       	st	Z, r24
    TCCR2B |= _BV(CS22) | _BV(CS21) | _BV(CS20); // set pre-scaler to 1024 and starts PWM
     1b8:	e1 eb       	ldi	r30, 0xB1	; 177
     1ba:	f0 e0       	ldi	r31, 0x00	; 0
     1bc:	80 81       	ld	r24, Z
     1be:	87 60       	ori	r24, 0x07	; 7
     1c0:	80 83       	st	Z, r24
     1c2:	08 95       	ret

000001c4 <command_to_polar>:
// Private functions
double left_set_point_delta(struct polar_coordinate in_polar);
double right_set_point_delta(struct polar_coordinate in_polar);

void command_to_polar(char* in_str, struct polar_coordinate* out_polar_coord)
{
     1c4:	cf 93       	push	r28
     1c6:	df 93       	push	r29
     1c8:	eb 01       	movw	r28, r22
    char* mag_str = strtok(in_str, " ");
     1ca:	6c e1       	ldi	r22, 0x1C	; 28
     1cc:	72 e0       	ldi	r23, 0x02	; 2
     1ce:	14 d4       	rcall	.+2088   	; 0x9f8 <strtok>
    out_polar_coord->mag = atof(mag_str);
     1d0:	10 d4       	rcall	.+2080   	; 0x9f2 <atof>
     1d2:	68 83       	st	Y, r22
     1d4:	79 83       	std	Y+1, r23	; 0x01
     1d6:	8a 83       	std	Y+2, r24	; 0x02
     1d8:	9b 83       	std	Y+3, r25	; 0x03
     1da:	6c e1       	ldi	r22, 0x1C	; 28
    char* dir_str = strtok(NULL, " ");
     1dc:	72 e0       	ldi	r23, 0x02	; 2
     1de:	80 e0       	ldi	r24, 0x00	; 0
     1e0:	90 e0       	ldi	r25, 0x00	; 0
     1e2:	0a d4       	rcall	.+2068   	; 0x9f8 <strtok>
    out_polar_coord->dir = atof(dir_str);
     1e4:	06 d4       	rcall	.+2060   	; 0x9f2 <atof>
     1e6:	6c 83       	std	Y+4, r22	; 0x04
     1e8:	7d 83       	std	Y+5, r23	; 0x05
     1ea:	8e 83       	std	Y+6, r24	; 0x06
     1ec:	9f 83       	std	Y+7, r25	; 0x07
     1ee:	df 91       	pop	r29
}
     1f0:	cf 91       	pop	r28
     1f2:	08 95       	ret

000001f4 <left_set_point_delta>:
     1f4:	4f 92       	push	r4
    //printf("compute left: %i /100; right: %i /100\n", (int) out_levels.left_level*100, (int) out_levels.right_level*100);
    return out_levels;
}

double left_set_point_delta(struct polar_coordinate in_polar)
{
     1f6:	5f 92       	push	r5
     1f8:	6f 92       	push	r6
     1fa:	7f 92       	push	r7
     1fc:	8f 92       	push	r8
     1fe:	9f 92       	push	r9
     200:	af 92       	push	r10
     202:	bf 92       	push	r11
     204:	cf 92       	push	r12
     206:	df 92       	push	r13
     208:	ef 92       	push	r14
     20a:	ff 92       	push	r15
     20c:	cf 93       	push	r28
     20e:	df 93       	push	r29
     210:	cd b7       	in	r28, 0x3d	; 61
     212:	de b7       	in	r29, 0x3e	; 62
     214:	28 97       	sbiw	r28, 0x08	; 8
     216:	0f b6       	in	r0, 0x3f	; 63
     218:	f8 94       	cli
     21a:	de bf       	out	0x3e, r29	; 62
     21c:	0f be       	out	0x3f, r0	; 63
     21e:	cd bf       	out	0x3d, r28	; 61
     220:	29 83       	std	Y+1, r18	; 0x01
     222:	3a 83       	std	Y+2, r19	; 0x02
     224:	4b 83       	std	Y+3, r20	; 0x03
     226:	5c 83       	std	Y+4, r21	; 0x04
     228:	6d 83       	std	Y+5, r22	; 0x05
     22a:	7e 83       	std	Y+6, r23	; 0x06
     22c:	8f 83       	std	Y+7, r24	; 0x07
     22e:	98 87       	std	Y+8, r25	; 0x08
     230:	c9 80       	ldd	r12, Y+1	; 0x01
     232:	da 80       	ldd	r13, Y+2	; 0x02
     234:	eb 80       	ldd	r14, Y+3	; 0x03
     236:	fc 80       	ldd	r15, Y+4	; 0x04
     238:	8d 80       	ldd	r8, Y+5	; 0x05
     23a:	9e 80       	ldd	r9, Y+6	; 0x06
     23c:	af 80       	ldd	r10, Y+7	; 0x07
     23e:	b8 84       	ldd	r11, Y+8	; 0x08
    //printf("sin(dir) = %i; cos(dir) = %i; mag = %i; DELTA_SCALE = %i; MAGNITUDE_SCALE = %i\n", (int)(sin(in_polar.dir)*100), (int)(cos(in_polar.dir)*100), (int) (in_polar.mag*100), (int) (DELTA_SCALE*100), (int) (MAGNIUTUDE_SCALE*100));
    return  MAGNIUTUDE_SCALE * (in_polar.mag * sin(in_polar.dir) + DELTA_SCALE * in_polar.mag * cos(in_polar.dir));
     240:	c5 01       	movw	r24, r10
     242:	b4 01       	movw	r22, r8
     244:	8c d3       	rcall	.+1816   	; 0x95e <sin>
     246:	2b 01       	movw	r4, r22
     248:	3c 01       	movw	r6, r24
     24a:	c5 01       	movw	r24, r10
     24c:	b4 01       	movw	r22, r8
     24e:	66 d2       	rcall	.+1228   	; 0x71c <cos>
     250:	4b 01       	movw	r8, r22
     252:	5c 01       	movw	r10, r24
     254:	20 e0       	ldi	r18, 0x00	; 0
     256:	30 e0       	ldi	r19, 0x00	; 0
     258:	40 e0       	ldi	r20, 0x00	; 0
     25a:	5f e3       	ldi	r21, 0x3F	; 63
     25c:	c7 01       	movw	r24, r14
     25e:	b6 01       	movw	r22, r12
     260:	1b d3       	rcall	.+1590   	; 0x898 <__mulsf3>
     262:	a5 01       	movw	r20, r10
     264:	94 01       	movw	r18, r8
     266:	18 d3       	rcall	.+1584   	; 0x898 <__mulsf3>
     268:	4b 01       	movw	r8, r22
     26a:	5c 01       	movw	r10, r24
     26c:	a7 01       	movw	r20, r14
     26e:	96 01       	movw	r18, r12
     270:	c3 01       	movw	r24, r6
     272:	b2 01       	movw	r22, r4
     274:	11 d3       	rcall	.+1570   	; 0x898 <__mulsf3>
     276:	9b 01       	movw	r18, r22
     278:	ac 01       	movw	r20, r24
     27a:	c5 01       	movw	r24, r10
     27c:	b4 01       	movw	r22, r8
     27e:	ea d1       	rcall	.+980    	; 0x654 <__addsf3>
     280:	2a ef       	ldi	r18, 0xFA	; 250
     282:	3e e7       	ldi	r19, 0x7E	; 126
     284:	4a e2       	ldi	r20, 0x2A	; 42
     286:	5f e3       	ldi	r21, 0x3F	; 63
     288:	07 d3       	rcall	.+1550   	; 0x898 <__mulsf3>
}
     28a:	28 96       	adiw	r28, 0x08	; 8
     28c:	0f b6       	in	r0, 0x3f	; 63
     28e:	f8 94       	cli
     290:	de bf       	out	0x3e, r29	; 62
     292:	0f be       	out	0x3f, r0	; 63
     294:	cd bf       	out	0x3d, r28	; 61
     296:	df 91       	pop	r29
     298:	cf 91       	pop	r28
     29a:	ff 90       	pop	r15
     29c:	ef 90       	pop	r14
     29e:	df 90       	pop	r13
     2a0:	cf 90       	pop	r12
     2a2:	bf 90       	pop	r11
     2a4:	af 90       	pop	r10
     2a6:	9f 90       	pop	r9
     2a8:	8f 90       	pop	r8
     2aa:	7f 90       	pop	r7
     2ac:	6f 90       	pop	r6
     2ae:	5f 90       	pop	r5
     2b0:	4f 90       	pop	r4
     2b2:	08 95       	ret

000002b4 <right_set_point_delta>:

double right_set_point_delta(struct polar_coordinate in_polar)
{
     2b4:	4f 92       	push	r4
     2b6:	5f 92       	push	r5
     2b8:	6f 92       	push	r6
     2ba:	7f 92       	push	r7
     2bc:	8f 92       	push	r8
     2be:	9f 92       	push	r9
     2c0:	af 92       	push	r10
     2c2:	bf 92       	push	r11
     2c4:	cf 92       	push	r12
     2c6:	df 92       	push	r13
     2c8:	ef 92       	push	r14
     2ca:	ff 92       	push	r15
     2cc:	cf 93       	push	r28
     2ce:	df 93       	push	r29
     2d0:	cd b7       	in	r28, 0x3d	; 61
     2d2:	de b7       	in	r29, 0x3e	; 62
     2d4:	28 97       	sbiw	r28, 0x08	; 8
     2d6:	0f b6       	in	r0, 0x3f	; 63
     2d8:	f8 94       	cli
     2da:	de bf       	out	0x3e, r29	; 62
     2dc:	0f be       	out	0x3f, r0	; 63
     2de:	cd bf       	out	0x3d, r28	; 61
     2e0:	29 83       	std	Y+1, r18	; 0x01
     2e2:	3a 83       	std	Y+2, r19	; 0x02
     2e4:	4b 83       	std	Y+3, r20	; 0x03
     2e6:	5c 83       	std	Y+4, r21	; 0x04
     2e8:	6d 83       	std	Y+5, r22	; 0x05
     2ea:	7e 83       	std	Y+6, r23	; 0x06
     2ec:	8f 83       	std	Y+7, r24	; 0x07
     2ee:	98 87       	std	Y+8, r25	; 0x08
     2f0:	c9 80       	ldd	r12, Y+1	; 0x01
     2f2:	da 80       	ldd	r13, Y+2	; 0x02
     2f4:	eb 80       	ldd	r14, Y+3	; 0x03
     2f6:	fc 80       	ldd	r15, Y+4	; 0x04
     2f8:	8d 80       	ldd	r8, Y+5	; 0x05
     2fa:	9e 80       	ldd	r9, Y+6	; 0x06
     2fc:	af 80       	ldd	r10, Y+7	; 0x07
     2fe:	b8 84       	ldd	r11, Y+8	; 0x08
    return MAGNIUTUDE_SCALE * (in_polar.mag * sin(in_polar.dir) - DELTA_SCALE * in_polar.mag * cos(in_polar.dir));
     300:	c5 01       	movw	r24, r10
     302:	b4 01       	movw	r22, r8
     304:	2c d3       	rcall	.+1624   	; 0x95e <sin>
     306:	2b 01       	movw	r4, r22
     308:	3c 01       	movw	r6, r24
     30a:	c5 01       	movw	r24, r10
     30c:	b4 01       	movw	r22, r8
     30e:	06 d2       	rcall	.+1036   	; 0x71c <cos>
     310:	4b 01       	movw	r8, r22
     312:	5c 01       	movw	r10, r24
     314:	a7 01       	movw	r20, r14
     316:	96 01       	movw	r18, r12
     318:	c3 01       	movw	r24, r6
     31a:	b2 01       	movw	r22, r4
     31c:	bd d2       	rcall	.+1402   	; 0x898 <__mulsf3>
     31e:	2b 01       	movw	r4, r22
     320:	3c 01       	movw	r6, r24
     322:	20 e0       	ldi	r18, 0x00	; 0
     324:	30 e0       	ldi	r19, 0x00	; 0
     326:	40 e0       	ldi	r20, 0x00	; 0
     328:	5f e3       	ldi	r21, 0x3F	; 63
     32a:	c7 01       	movw	r24, r14
     32c:	b6 01       	movw	r22, r12
     32e:	b4 d2       	rcall	.+1384   	; 0x898 <__mulsf3>
     330:	a5 01       	movw	r20, r10
     332:	94 01       	movw	r18, r8
     334:	b1 d2       	rcall	.+1378   	; 0x898 <__mulsf3>
     336:	9b 01       	movw	r18, r22
     338:	ac 01       	movw	r20, r24
     33a:	c3 01       	movw	r24, r6
     33c:	b2 01       	movw	r22, r4
     33e:	89 d1       	rcall	.+786    	; 0x652 <__subsf3>
     340:	2a ef       	ldi	r18, 0xFA	; 250
     342:	3e e7       	ldi	r19, 0x7E	; 126
     344:	4a e2       	ldi	r20, 0x2A	; 42
     346:	5f e3       	ldi	r21, 0x3F	; 63
     348:	a7 d2       	rcall	.+1358   	; 0x898 <__mulsf3>
}
     34a:	28 96       	adiw	r28, 0x08	; 8
     34c:	0f b6       	in	r0, 0x3f	; 63
     34e:	f8 94       	cli
     350:	de bf       	out	0x3e, r29	; 62
     352:	0f be       	out	0x3f, r0	; 63
     354:	cd bf       	out	0x3d, r28	; 61
     356:	df 91       	pop	r29
     358:	cf 91       	pop	r28
     35a:	ff 90       	pop	r15
     35c:	ef 90       	pop	r14
     35e:	df 90       	pop	r13
     360:	cf 90       	pop	r12
     362:	bf 90       	pop	r11
     364:	af 90       	pop	r10
     366:	9f 90       	pop	r9
     368:	8f 90       	pop	r8
     36a:	7f 90       	pop	r7
     36c:	6f 90       	pop	r6
     36e:	5f 90       	pop	r5
     370:	4f 90       	pop	r4
     372:	08 95       	ret

00000374 <compute_levels>:
    char* dir_str = strtok(NULL, " ");
    out_polar_coord->dir = atof(dir_str);
}

struct motor_levels compute_levels(struct polar_coordinate in_polar)
{
     374:	ef 92       	push	r14
     376:	ff 92       	push	r15
     378:	0f 93       	push	r16
     37a:	1f 93       	push	r17
     37c:	cf 93       	push	r28
     37e:	df 93       	push	r29
     380:	cd b7       	in	r28, 0x3d	; 61
     382:	de b7       	in	r29, 0x3e	; 62
     384:	60 97       	sbiw	r28, 0x10	; 16
     386:	0f b6       	in	r0, 0x3f	; 63
     388:	f8 94       	cli
     38a:	de bf       	out	0x3e, r29	; 62
     38c:	0f be       	out	0x3f, r0	; 63
     38e:	cd bf       	out	0x3d, r28	; 61
     390:	29 87       	std	Y+9, r18	; 0x09
     392:	3a 87       	std	Y+10, r19	; 0x0a
     394:	4b 87       	std	Y+11, r20	; 0x0b
     396:	5c 87       	std	Y+12, r21	; 0x0c
     398:	6d 87       	std	Y+13, r22	; 0x0d
     39a:	7e 87       	std	Y+14, r23	; 0x0e
     39c:	8f 87       	std	Y+15, r24	; 0x0f
     39e:	98 8b       	std	Y+16, r25	; 0x10
    struct motor_levels out_levels;
    out_levels.right_level = right_set_point_delta(in_polar);
     3a0:	89 df       	rcall	.-238    	; 0x2b4 <right_set_point_delta>
     3a2:	16 2f       	mov	r17, r22
     3a4:	e7 2e       	mov	r14, r23
     3a6:	f8 2e       	mov	r15, r24
     3a8:	09 2f       	mov	r16, r25
    out_levels.left_level = left_set_point_delta(in_polar);
     3aa:	29 85       	ldd	r18, Y+9	; 0x09
     3ac:	3a 85       	ldd	r19, Y+10	; 0x0a
     3ae:	4b 85       	ldd	r20, Y+11	; 0x0b
     3b0:	5c 85       	ldd	r21, Y+12	; 0x0c
     3b2:	6d 85       	ldd	r22, Y+13	; 0x0d
     3b4:	7e 85       	ldd	r23, Y+14	; 0x0e
     3b6:	8f 85       	ldd	r24, Y+15	; 0x0f
     3b8:	98 89       	ldd	r25, Y+16	; 0x10
     3ba:	1c df       	rcall	.-456    	; 0x1f4 <left_set_point_delta>
     3bc:	26 2f       	mov	r18, r22
    //printf("compute left: %i /100; right: %i /100\n", (int) out_levels.left_level*100, (int) out_levels.right_level*100);
    return out_levels;
     3be:	46 2f       	mov	r20, r22
     3c0:	57 2f       	mov	r21, r23
     3c2:	68 2f       	mov	r22, r24
     3c4:	79 2f       	mov	r23, r25
     3c6:	49 83       	std	Y+1, r20	; 0x01
     3c8:	5a 83       	std	Y+2, r21	; 0x02
     3ca:	6b 83       	std	Y+3, r22	; 0x03
     3cc:	7c 83       	std	Y+4, r23	; 0x04
     3ce:	81 2f       	mov	r24, r17
     3d0:	9e 2d       	mov	r25, r14
     3d2:	af 2d       	mov	r26, r15
     3d4:	b0 2f       	mov	r27, r16
     3d6:	8d 83       	std	Y+5, r24	; 0x05
     3d8:	9e 83       	std	Y+6, r25	; 0x06
     3da:	af 83       	std	Y+7, r26	; 0x07
     3dc:	b8 87       	std	Y+8, r27	; 0x08
     3de:	3a 81       	ldd	r19, Y+2	; 0x02
     3e0:	4b 81       	ldd	r20, Y+3	; 0x03
     3e2:	5c 81       	ldd	r21, Y+4	; 0x04
     3e4:	61 2f       	mov	r22, r17
     3e6:	7e 81       	ldd	r23, Y+6	; 0x06
}
     3e8:	8f 81       	ldd	r24, Y+7	; 0x07
     3ea:	98 85       	ldd	r25, Y+8	; 0x08
     3ec:	60 96       	adiw	r28, 0x10	; 16
     3ee:	0f b6       	in	r0, 0x3f	; 63
     3f0:	f8 94       	cli
     3f2:	de bf       	out	0x3e, r29	; 62
     3f4:	0f be       	out	0x3f, r0	; 63
     3f6:	cd bf       	out	0x3d, r28	; 61
     3f8:	df 91       	pop	r29
     3fa:	cf 91       	pop	r28
     3fc:	1f 91       	pop	r17
     3fe:	0f 91       	pop	r16
     400:	ff 90       	pop	r15
     402:	ef 90       	pop	r14
     404:	08 95       	ret

00000406 <setup_pins>:
	}
}

void setup_pins()
{
	DDRB |= _BV(DDB7) | _BV(DDB4);
     406:	84 b1       	in	r24, 0x04	; 4
     408:	80 69       	ori	r24, 0x90	; 144
     40a:	84 b9       	out	0x04, r24	; 4
	PORTB |= _BV(PORTB7) | _BV(PORTB4);
     40c:	85 b1       	in	r24, 0x05	; 5
     40e:	80 69       	ori	r24, 0x90	; 144
     410:	85 b9       	out	0x05, r24	; 5
    DDRH |= _BV(DDH6);
     412:	e1 e0       	ldi	r30, 0x01	; 1
     414:	f1 e0       	ldi	r31, 0x01	; 1
     416:	80 81       	ld	r24, Z
     418:	80 64       	ori	r24, 0x40	; 64
     41a:	80 83       	st	Z, r24
    PORTH |= _BV(PORTH6);
     41c:	e2 e0       	ldi	r30, 0x02	; 2
     41e:	f1 e0       	ldi	r31, 0x01	; 1
     420:	80 81       	ld	r24, Z
     422:	80 64       	ori	r24, 0x40	; 64
     424:	80 83       	st	Z, r24
     426:	08 95       	ret

00000428 <main>:
struct polar_coordinate CURRENT_COMMAND;

void setup_pins();

int main (void) 
{
     428:	cf 93       	push	r28
     42a:	df 93       	push	r29
     42c:	cd b7       	in	r28, 0x3d	; 61
     42e:	de b7       	in	r29, 0x3e	; 62
     430:	28 97       	sbiw	r28, 0x08	; 8
     432:	0f b6       	in	r0, 0x3f	; 63
     434:	f8 94       	cli
     436:	de bf       	out	0x3e, r29	; 62
     438:	0f be       	out	0x3f, r0	; 63
     43a:	cd bf       	out	0x3d, r28	; 61
	// Initialize
	CURRENT_COMMAND.mag = 0.0;
     43c:	e8 e5       	ldi	r30, 0x58	; 88
     43e:	f2 e0       	ldi	r31, 0x02	; 2
     440:	10 82       	st	Z, r1
     442:	11 82       	std	Z+1, r1	; 0x01
     444:	12 82       	std	Z+2, r1	; 0x02
     446:	13 82       	std	Z+3, r1	; 0x03
	CURRENT_COMMAND.dir = 0.0;
     448:	14 82       	std	Z+4, r1	; 0x04
     44a:	15 82       	std	Z+5, r1	; 0x05
     44c:	16 82       	std	Z+6, r1	; 0x06
     44e:	17 82       	std	Z+7, r1	; 0x07
    struct motor_levels motor_output;
	
	setup_pins();
     450:	da df       	rcall	.-76     	; 0x406 <setup_pins>
	avr_interrupt_timer_init();
     452:	96 de       	rcall	.-724    	; 0x180 <avr_interrupt_timer_init>
    avr_pwm_timer_init();
     454:	a9 de       	rcall	.-686    	; 0x1a8 <avr_pwm_timer_init>
     456:	eb d0       	rcall	.+470    	; 0x62e <uart_init>
	uart_init();
     458:	00 e6       	ldi	r16, 0x60	; 96
     45a:	12 e0       	ldi	r17, 0x02	; 2
	uart_set_io_streams(stdin, stdout);
     45c:	f8 01       	movw	r30, r16
     45e:	62 81       	ldd	r22, Z+2	; 0x02
     460:	73 81       	ldd	r23, Z+3	; 0x03
     462:	80 81       	ld	r24, Z
     464:	91 81       	ldd	r25, Z+1	; 0x01
     466:	f4 d0       	rcall	.+488    	; 0x650 <uart_set_io_streams>
     468:	80 e0       	ldi	r24, 0x00	; 0
     46a:	92 e0       	ldi	r25, 0x02	; 2
    stdin = &uart_input;
     46c:	f8 01       	movw	r30, r16
     46e:	91 83       	std	Z+1, r25	; 0x01
     470:	80 83       	st	Z, r24
     472:	8e e0       	ldi	r24, 0x0E	; 14
     474:	92 e0       	ldi	r25, 0x02	; 2
    stdout =  &uart_output;
     476:	93 83       	std	Z+3, r25	; 0x03
     478:	82 83       	std	Z+2, r24	; 0x02
     47a:	78 94       	sei
     47c:	0f 2e       	mov	r0, r31
	
	// Enable global interrupts
	sei();
     47e:	f3 eb       	ldi	r31, 0xB3	; 179
        motor_output = compute_levels(CURRENT_COMMAND);
        // Set timer compare register
        //printf("motor_output left: %i /100; right: %i /100\n", (int) motor_output.left_level*100, (int) motor_output.right_level*100);
        int left_count = (int) (motor_output.left_level * MAX_COMPARE_8_BIT);;
        int right_count = (int) (motor_output.right_level * MAX_COMPARE_8_BIT);
        OCR2A = left_count; //(int) (motor_output.left_level * MAX_COMPARE_8_BIT);
     480:	cf 2e       	mov	r12, r31
     482:	d1 2c       	mov	r13, r1
     484:	f0 2d       	mov	r31, r0
     486:	0f 2e       	mov	r0, r31
     488:	f4 eb       	ldi	r31, 0xB4	; 180
        OCR2B = right_count; //(int) (motor_output.right_level * MAX_COMPARE_8_BIT);
     48a:	ef 2e       	mov	r14, r31
     48c:	f1 2c       	mov	r15, r1
     48e:	f0 2d       	mov	r31, r0
     490:	0e e1       	ldi	r16, 0x1E	; 30
     492:	12 e0       	ldi	r17, 0x02	; 2
        
        // TODO: CURRENT_COMMAND is set in the interrupt handler, refactor that to set it here and make it not global
		//printf("mag: %i, dir %i\n", (int) CURRENT_COMMAND.mag, (int) CURRENT_COMMAND.dir);
        printf("left: %i, right: %i\n", left_count, right_count);
     494:	80 91 36 02 	lds	r24, 0x0236	; 0x800236 <LOOP_RUN_FLAG>
	sei();

	// Super loop
	while(1) 
	{
		while(LOOP_RUN_FLAG == 0);
     498:	90 91 37 02 	lds	r25, 0x0237	; 0x800237 <LOOP_RUN_FLAG+0x1>
     49c:	89 2b       	or	r24, r25
     49e:	d1 f3       	breq	.-12     	; 0x494 <main+0x6c>
     4a0:	10 92 37 02 	sts	0x0237, r1	; 0x800237 <LOOP_RUN_FLAG+0x1>
		LOOP_RUN_FLAG = 0;
     4a4:	10 92 36 02 	sts	0x0236, r1	; 0x800236 <LOOP_RUN_FLAG>
     4a8:	20 91 58 02 	lds	r18, 0x0258	; 0x800258 <CURRENT_COMMAND>
        
        // Compute skid steer levels
        motor_output = compute_levels(CURRENT_COMMAND);
     4ac:	30 91 59 02 	lds	r19, 0x0259	; 0x800259 <CURRENT_COMMAND+0x1>
     4b0:	40 91 5a 02 	lds	r20, 0x025A	; 0x80025a <CURRENT_COMMAND+0x2>
     4b4:	50 91 5b 02 	lds	r21, 0x025B	; 0x80025b <CURRENT_COMMAND+0x3>
     4b8:	60 91 5c 02 	lds	r22, 0x025C	; 0x80025c <CURRENT_COMMAND+0x4>
     4bc:	70 91 5d 02 	lds	r23, 0x025D	; 0x80025d <CURRENT_COMMAND+0x5>
     4c0:	80 91 5e 02 	lds	r24, 0x025E	; 0x80025e <CURRENT_COMMAND+0x6>
     4c4:	90 91 5f 02 	lds	r25, 0x025F	; 0x80025f <CURRENT_COMMAND+0x7>
     4c8:	55 df       	rcall	.-342    	; 0x374 <compute_levels>
     4ca:	29 83       	std	Y+1, r18	; 0x01
     4cc:	3a 83       	std	Y+2, r19	; 0x02
     4ce:	4b 83       	std	Y+3, r20	; 0x03
     4d0:	5c 83       	std	Y+4, r21	; 0x04
     4d2:	6d 83       	std	Y+5, r22	; 0x05
     4d4:	7e 83       	std	Y+6, r23	; 0x06
     4d6:	8f 83       	std	Y+7, r24	; 0x07
     4d8:	98 87       	std	Y+8, r25	; 0x08
     4da:	20 e0       	ldi	r18, 0x00	; 0
     4dc:	30 e0       	ldi	r19, 0x00	; 0
        // Set timer compare register
        //printf("motor_output left: %i /100; right: %i /100\n", (int) motor_output.left_level*100, (int) motor_output.right_level*100);
        int left_count = (int) (motor_output.left_level * MAX_COMPARE_8_BIT);;
     4de:	4f e7       	ldi	r20, 0x7F	; 127
     4e0:	53 e4       	ldi	r21, 0x43	; 67
     4e2:	69 81       	ldd	r22, Y+1	; 0x01
     4e4:	7a 81       	ldd	r23, Y+2	; 0x02
     4e6:	8b 81       	ldd	r24, Y+3	; 0x03
     4e8:	9c 81       	ldd	r25, Y+4	; 0x04
     4ea:	d6 d1       	rcall	.+940    	; 0x898 <__mulsf3>
     4ec:	1a d1       	rcall	.+564    	; 0x722 <__fixsfsi>
     4ee:	b6 2e       	mov	r11, r22
     4f0:	a7 2e       	mov	r10, r23
     4f2:	20 e0       	ldi	r18, 0x00	; 0
     4f4:	30 e0       	ldi	r19, 0x00	; 0
        int right_count = (int) (motor_output.right_level * MAX_COMPARE_8_BIT);
     4f6:	4f e7       	ldi	r20, 0x7F	; 127
     4f8:	53 e4       	ldi	r21, 0x43	; 67
     4fa:	6d 81       	ldd	r22, Y+5	; 0x05
     4fc:	7e 81       	ldd	r23, Y+6	; 0x06
     4fe:	8f 81       	ldd	r24, Y+7	; 0x07
     500:	98 85       	ldd	r25, Y+8	; 0x08
     502:	ca d1       	rcall	.+916    	; 0x898 <__mulsf3>
     504:	0e d1       	rcall	.+540    	; 0x722 <__fixsfsi>
     506:	f6 01       	movw	r30, r12
     508:	b0 82       	st	Z, r11
        OCR2A = left_count; //(int) (motor_output.left_level * MAX_COMPARE_8_BIT);
     50a:	f7 01       	movw	r30, r14
        OCR2B = right_count; //(int) (motor_output.right_level * MAX_COMPARE_8_BIT);
     50c:	60 83       	st	Z, r22
     50e:	7f 93       	push	r23
        
        // TODO: CURRENT_COMMAND is set in the interrupt handler, refactor that to set it here and make it not global
		//printf("mag: %i, dir %i\n", (int) CURRENT_COMMAND.mag, (int) CURRENT_COMMAND.dir);
        printf("left: %i, right: %i\n", left_count, right_count);
     510:	6f 93       	push	r22
     512:	af 92       	push	r10
     514:	bf 92       	push	r11
     516:	1f 93       	push	r17
     518:	0f 93       	push	r16
     51a:	a8 d2       	rcall	.+1360   	; 0xa6c <printf>
     51c:	85 b1       	in	r24, 0x05	; 5
     51e:	80 58       	subi	r24, 0x80	; 128
        PORTB ^= _BV(PORTB7);
     520:	85 b9       	out	0x05, r24	; 5
     522:	0f 90       	pop	r0
     524:	0f 90       	pop	r0
	}
     526:	0f 90       	pop	r0
     528:	0f 90       	pop	r0
     52a:	0f 90       	pop	r0
     52c:	0f 90       	pop	r0
     52e:	b2 cf       	rjmp	.-156    	; 0x494 <main+0x6c>

00000530 <__vector_25>:
     530:	1f 92       	push	r1
     532:	0f 92       	push	r0
    PORTH |= _BV(PORTH6);
}

// Incoming message interrupt
ISR(USART0_RX_vect)
{
     534:	0f b6       	in	r0, 0x3f	; 63
     536:	0f 92       	push	r0
     538:	11 24       	eor	r1, r1
     53a:	0b b6       	in	r0, 0x3b	; 59
     53c:	0f 92       	push	r0
     53e:	2f 93       	push	r18
     540:	3f 93       	push	r19
     542:	4f 93       	push	r20
     544:	5f 93       	push	r21
     546:	6f 93       	push	r22
     548:	7f 93       	push	r23
     54a:	8f 93       	push	r24
     54c:	9f 93       	push	r25
     54e:	af 93       	push	r26
     550:	bf 93       	push	r27
     552:	ef 93       	push	r30
     554:	ff 93       	push	r31
     556:	cf 93       	push	r28
     558:	df 93       	push	r29
     55a:	1f 92       	push	r1
     55c:	cd b7       	in	r28, 0x3d	; 61
     55e:	de b7       	in	r29, 0x3e	; 62
	char receivedByte = UDR0; // Fetch incoming byte
     560:	e6 ec       	ldi	r30, 0xC6	; 198
     562:	f0 e0       	ldi	r31, 0x00	; 0
     564:	80 81       	ld	r24, Z
     566:	89 83       	std	Y+1, r24	; 0x01
    UDR0 = receivedByte;
     568:	80 83       	st	Z, r24
	PORTB ^= _BV(PORTB7);
     56a:	85 b1       	in	r24, 0x05	; 5
     56c:	80 58       	subi	r24, 0x80	; 128
     56e:	85 b9       	out	0x05, r24	; 5
	if(receivedByte != '\n')
     570:	89 81       	ldd	r24, Y+1	; 0x01
     572:	8a 30       	cpi	r24, 0x0A	; 10
     574:	49 f0       	breq	.+18     	; 0x588 <__vector_25+0x58>
	{
		strncat(INPUT_COMMAND_STRING, &receivedByte, sizeof(receivedByte));
     576:	41 e0       	ldi	r20, 0x01	; 1
     578:	50 e0       	ldi	r21, 0x00	; 0
     57a:	be 01       	movw	r22, r28
     57c:	6f 5f       	subi	r22, 0xFF	; 255
     57e:	7f 4f       	sbci	r23, 0xFF	; 255
     580:	88 e3       	ldi	r24, 0x38	; 56
     582:	92 e0       	ldi	r25, 0x02	; 2
     584:	3c d2       	rcall	.+1144   	; 0x9fe <strncat>
     586:	0c c0       	rjmp	.+24     	; 0x5a0 <__vector_25+0x70>
	}
	else
	{
		command_to_polar(INPUT_COMMAND_STRING, &CURRENT_COMMAND);
     588:	68 e5       	ldi	r22, 0x58	; 88
     58a:	72 e0       	ldi	r23, 0x02	; 2
     58c:	88 e3       	ldi	r24, 0x38	; 56
     58e:	92 e0       	ldi	r25, 0x02	; 2
     590:	19 de       	rcall	.-974    	; 0x1c4 <command_to_polar>
		memset(INPUT_COMMAND_STRING, 0, sizeof(INPUT_COMMAND_STRING));
     592:	80 e2       	ldi	r24, 0x20	; 32
     594:	e8 e3       	ldi	r30, 0x38	; 56
     596:	f2 e0       	ldi	r31, 0x02	; 2
     598:	df 01       	movw	r26, r30
     59a:	1d 92       	st	X+, r1
     59c:	8a 95       	dec	r24
     59e:	e9 f7       	brne	.-6      	; 0x59a <__vector_25+0x6a>
	}
    LOOP_RUN_FLAG = 1;
     5a0:	81 e0       	ldi	r24, 0x01	; 1
     5a2:	90 e0       	ldi	r25, 0x00	; 0
     5a4:	90 93 37 02 	sts	0x0237, r25	; 0x800237 <LOOP_RUN_FLAG+0x1>
     5a8:	80 93 36 02 	sts	0x0236, r24	; 0x800236 <LOOP_RUN_FLAG>
}
     5ac:	0f 90       	pop	r0
     5ae:	df 91       	pop	r29
     5b0:	cf 91       	pop	r28
     5b2:	ff 91       	pop	r31
     5b4:	ef 91       	pop	r30
     5b6:	bf 91       	pop	r27
     5b8:	af 91       	pop	r26
     5ba:	9f 91       	pop	r25
     5bc:	8f 91       	pop	r24
     5be:	7f 91       	pop	r23
     5c0:	6f 91       	pop	r22
     5c2:	5f 91       	pop	r21
     5c4:	4f 91       	pop	r20
     5c6:	3f 91       	pop	r19
     5c8:	2f 91       	pop	r18
     5ca:	0f 90       	pop	r0
     5cc:	0b be       	out	0x3b, r0	; 59
     5ce:	0f 90       	pop	r0
     5d0:	0f be       	out	0x3f, r0	; 63
     5d2:	0f 90       	pop	r0
     5d4:	1f 90       	pop	r1
     5d6:	18 95       	reti

000005d8 <__vector_17>:

// Timer interrupt
ISR(TIMER1_COMPA_vect)
{
     5d8:	1f 92       	push	r1
     5da:	0f 92       	push	r0
     5dc:	0f b6       	in	r0, 0x3f	; 63
     5de:	0f 92       	push	r0
     5e0:	11 24       	eor	r1, r1
     5e2:	8f 93       	push	r24
     5e4:	9f 93       	push	r25
	LOOP_RUN_FLAG = 1;
     5e6:	81 e0       	ldi	r24, 0x01	; 1
     5e8:	90 e0       	ldi	r25, 0x00	; 0
     5ea:	90 93 37 02 	sts	0x0237, r25	; 0x800237 <LOOP_RUN_FLAG+0x1>
     5ee:	80 93 36 02 	sts	0x0236, r24	; 0x800236 <LOOP_RUN_FLAG>
}
     5f2:	9f 91       	pop	r25
     5f4:	8f 91       	pop	r24
     5f6:	0f 90       	pop	r0
     5f8:	0f be       	out	0x3f, r0	; 63
     5fa:	0f 90       	pop	r0
     5fc:	1f 90       	pop	r1
     5fe:	18 95       	reti

00000600 <uart_putchar>:
    input_stream = &uart_input;
    output_stream =  &uart_output;
}

void uart_putchar(char c, FILE *stream)
{
     600:	cf 93       	push	r28
     602:	c8 2f       	mov	r28, r24
    if (c == '\n')
     604:	8a 30       	cpi	r24, 0x0A	; 10
     606:	11 f4       	brne	.+4      	; 0x60c <uart_putchar+0xc>
    {
        uart_putchar('\r', stream);
     608:	8d e0       	ldi	r24, 0x0D	; 13
     60a:	fa df       	rcall	.-12     	; 0x600 <uart_putchar>
    }
    loop_until_bit_is_set(UCSR0A, UDRE0);
     60c:	e0 ec       	ldi	r30, 0xC0	; 192
     60e:	f0 e0       	ldi	r31, 0x00	; 0
     610:	80 81       	ld	r24, Z
     612:	85 ff       	sbrs	r24, 5
     614:	fd cf       	rjmp	.-6      	; 0x610 <uart_putchar+0x10>
    UDR0 = c;
     616:	c0 93 c6 00 	sts	0x00C6, r28	; 0x8000c6 <__TEXT_REGION_LENGTH__+0x7000c6>
}
     61a:	cf 91       	pop	r28
     61c:	08 95       	ret

0000061e <uart_getchar>:

char uart_getchar(FILE *stream)
{
    loop_until_bit_is_set(UCSR0A, RXC0);
     61e:	e0 ec       	ldi	r30, 0xC0	; 192
     620:	f0 e0       	ldi	r31, 0x00	; 0
     622:	80 81       	ld	r24, Z
     624:	88 23       	and	r24, r24
     626:	ec f7       	brge	.-6      	; 0x622 <uart_getchar+0x4>
    return UDR0;
     628:	80 91 c6 00 	lds	r24, 0x00C6	; 0x8000c6 <__TEXT_REGION_LENGTH__+0x7000c6>
     62c:	08 95       	ret

0000062e <uart_init>:
FILE uart_output = FDEV_SETUP_STREAM(uart_putchar, NULL, _FDEV_SETUP_WRITE);
FILE uart_input = FDEV_SETUP_STREAM(NULL, uart_getchar, _FDEV_SETUP_READ);

void uart_init()
{
    UBRR0H = UBRRH_VALUE;
     62e:	10 92 c5 00 	sts	0x00C5, r1	; 0x8000c5 <__TEXT_REGION_LENGTH__+0x7000c5>
    UBRR0L = UBRRL_VALUE;
     632:	87 e6       	ldi	r24, 0x67	; 103
     634:	80 93 c4 00 	sts	0x00C4, r24	; 0x8000c4 <__TEXT_REGION_LENGTH__+0x7000c4>
    
    #if USE_2X
    UCSR0A |= _BV(U2X0);
    #else
    UCSR0A &= ~(_BV(U2X0));
     638:	e0 ec       	ldi	r30, 0xC0	; 192
     63a:	f0 e0       	ldi	r31, 0x00	; 0
     63c:	80 81       	ld	r24, Z
     63e:	8d 7f       	andi	r24, 0xFD	; 253
     640:	80 83       	st	Z, r24
    #endif

    UCSR0C = _BV(UCSZ01) | _BV(UCSZ00);					/* 8-bit data */
     642:	86 e0       	ldi	r24, 0x06	; 6
     644:	80 93 c2 00 	sts	0x00C2, r24	; 0x8000c2 <__TEXT_REGION_LENGTH__+0x7000c2>
    UCSR0B = _BV(TXEN0) | _BV(RXEN0) | _BV(RXCIE0);		/* Enable Tx, Rx, and interrupt on receive*/
     648:	88 e9       	ldi	r24, 0x98	; 152
     64a:	80 93 c1 00 	sts	0x00C1, r24	; 0x8000c1 <__TEXT_REGION_LENGTH__+0x7000c1>
     64e:	08 95       	ret

00000650 <uart_set_io_streams>:
}

void uart_set_io_streams(FILE *input_stream, FILE *output_stream)
{
     650:	08 95       	ret

00000652 <__subsf3>:
     652:	50 58       	subi	r21, 0x80	; 128

00000654 <__addsf3>:
     654:	bb 27       	eor	r27, r27
     656:	aa 27       	eor	r26, r26
     658:	0e d0       	rcall	.+28     	; 0x676 <__addsf3x>
     65a:	d3 c0       	rjmp	.+422    	; 0x802 <__fp_round>
     65c:	9c d0       	rcall	.+312    	; 0x796 <__fp_pscA>
     65e:	30 f0       	brcs	.+12     	; 0x66c <__addsf3+0x18>
     660:	a1 d0       	rcall	.+322    	; 0x7a4 <__fp_pscB>
     662:	20 f0       	brcs	.+8      	; 0x66c <__addsf3+0x18>
     664:	31 f4       	brne	.+12     	; 0x672 <__addsf3+0x1e>
     666:	9f 3f       	cpi	r25, 0xFF	; 255
     668:	11 f4       	brne	.+4      	; 0x66e <__addsf3+0x1a>
     66a:	1e f4       	brtc	.+6      	; 0x672 <__addsf3+0x1e>
     66c:	91 c0       	rjmp	.+290    	; 0x790 <__fp_nan>
     66e:	0e f4       	brtc	.+2      	; 0x672 <__addsf3+0x1e>
     670:	e0 95       	com	r30
     672:	e7 fb       	bst	r30, 7
     674:	87 c0       	rjmp	.+270    	; 0x784 <__fp_inf>

00000676 <__addsf3x>:
     676:	e9 2f       	mov	r30, r25
     678:	e6 d0       	rcall	.+460    	; 0x846 <__fp_split3>
     67a:	80 f3       	brcs	.-32     	; 0x65c <__addsf3+0x8>
     67c:	ba 17       	cp	r27, r26
     67e:	62 07       	cpc	r22, r18
     680:	73 07       	cpc	r23, r19
     682:	84 07       	cpc	r24, r20
     684:	95 07       	cpc	r25, r21
     686:	18 f0       	brcs	.+6      	; 0x68e <__addsf3x+0x18>
     688:	71 f4       	brne	.+28     	; 0x6a6 <__addsf3x+0x30>
     68a:	9e f5       	brtc	.+102    	; 0x6f2 <__addsf3x+0x7c>
     68c:	fe c0       	rjmp	.+508    	; 0x88a <__fp_zero>
     68e:	0e f4       	brtc	.+2      	; 0x692 <__addsf3x+0x1c>
     690:	e0 95       	com	r30
     692:	0b 2e       	mov	r0, r27
     694:	ba 2f       	mov	r27, r26
     696:	a0 2d       	mov	r26, r0
     698:	0b 01       	movw	r0, r22
     69a:	b9 01       	movw	r22, r18
     69c:	90 01       	movw	r18, r0
     69e:	0c 01       	movw	r0, r24
     6a0:	ca 01       	movw	r24, r20
     6a2:	a0 01       	movw	r20, r0
     6a4:	11 24       	eor	r1, r1
     6a6:	ff 27       	eor	r31, r31
     6a8:	59 1b       	sub	r21, r25
     6aa:	99 f0       	breq	.+38     	; 0x6d2 <__addsf3x+0x5c>
     6ac:	59 3f       	cpi	r21, 0xF9	; 249
     6ae:	50 f4       	brcc	.+20     	; 0x6c4 <__addsf3x+0x4e>
     6b0:	50 3e       	cpi	r21, 0xE0	; 224
     6b2:	68 f1       	brcs	.+90     	; 0x70e <__addsf3x+0x98>
     6b4:	1a 16       	cp	r1, r26
     6b6:	f0 40       	sbci	r31, 0x00	; 0
     6b8:	a2 2f       	mov	r26, r18
     6ba:	23 2f       	mov	r18, r19
     6bc:	34 2f       	mov	r19, r20
     6be:	44 27       	eor	r20, r20
     6c0:	58 5f       	subi	r21, 0xF8	; 248
     6c2:	f3 cf       	rjmp	.-26     	; 0x6aa <__addsf3x+0x34>
     6c4:	46 95       	lsr	r20
     6c6:	37 95       	ror	r19
     6c8:	27 95       	ror	r18
     6ca:	a7 95       	ror	r26
     6cc:	f0 40       	sbci	r31, 0x00	; 0
     6ce:	53 95       	inc	r21
     6d0:	c9 f7       	brne	.-14     	; 0x6c4 <__addsf3x+0x4e>
     6d2:	7e f4       	brtc	.+30     	; 0x6f2 <__addsf3x+0x7c>
     6d4:	1f 16       	cp	r1, r31
     6d6:	ba 0b       	sbc	r27, r26
     6d8:	62 0b       	sbc	r22, r18
     6da:	73 0b       	sbc	r23, r19
     6dc:	84 0b       	sbc	r24, r20
     6de:	ba f0       	brmi	.+46     	; 0x70e <__addsf3x+0x98>
     6e0:	91 50       	subi	r25, 0x01	; 1
     6e2:	a1 f0       	breq	.+40     	; 0x70c <__addsf3x+0x96>
     6e4:	ff 0f       	add	r31, r31
     6e6:	bb 1f       	adc	r27, r27
     6e8:	66 1f       	adc	r22, r22
     6ea:	77 1f       	adc	r23, r23
     6ec:	88 1f       	adc	r24, r24
     6ee:	c2 f7       	brpl	.-16     	; 0x6e0 <__addsf3x+0x6a>
     6f0:	0e c0       	rjmp	.+28     	; 0x70e <__addsf3x+0x98>
     6f2:	ba 0f       	add	r27, r26
     6f4:	62 1f       	adc	r22, r18
     6f6:	73 1f       	adc	r23, r19
     6f8:	84 1f       	adc	r24, r20
     6fa:	48 f4       	brcc	.+18     	; 0x70e <__addsf3x+0x98>
     6fc:	87 95       	ror	r24
     6fe:	77 95       	ror	r23
     700:	67 95       	ror	r22
     702:	b7 95       	ror	r27
     704:	f7 95       	ror	r31
     706:	9e 3f       	cpi	r25, 0xFE	; 254
     708:	08 f0       	brcs	.+2      	; 0x70c <__addsf3x+0x96>
     70a:	b3 cf       	rjmp	.-154    	; 0x672 <__addsf3+0x1e>
     70c:	93 95       	inc	r25
     70e:	88 0f       	add	r24, r24
     710:	08 f0       	brcs	.+2      	; 0x714 <__addsf3x+0x9e>
     712:	99 27       	eor	r25, r25
     714:	ee 0f       	add	r30, r30
     716:	97 95       	ror	r25
     718:	87 95       	ror	r24
     71a:	08 95       	ret

0000071c <cos>:
     71c:	4b d0       	rcall	.+150    	; 0x7b4 <__fp_rempio2>
     71e:	e3 95       	inc	r30
     720:	81 c0       	rjmp	.+258    	; 0x824 <__fp_sinus>

00000722 <__fixsfsi>:
     722:	04 d0       	rcall	.+8      	; 0x72c <__fixunssfsi>
     724:	68 94       	set
     726:	b1 11       	cpse	r27, r1
     728:	b1 c0       	rjmp	.+354    	; 0x88c <__fp_szero>
     72a:	08 95       	ret

0000072c <__fixunssfsi>:
     72c:	94 d0       	rcall	.+296    	; 0x856 <__fp_splitA>
     72e:	88 f0       	brcs	.+34     	; 0x752 <__fixunssfsi+0x26>
     730:	9f 57       	subi	r25, 0x7F	; 127
     732:	90 f0       	brcs	.+36     	; 0x758 <__fixunssfsi+0x2c>
     734:	b9 2f       	mov	r27, r25
     736:	99 27       	eor	r25, r25
     738:	b7 51       	subi	r27, 0x17	; 23
     73a:	a0 f0       	brcs	.+40     	; 0x764 <__fixunssfsi+0x38>
     73c:	d1 f0       	breq	.+52     	; 0x772 <__fixunssfsi+0x46>
     73e:	66 0f       	add	r22, r22
     740:	77 1f       	adc	r23, r23
     742:	88 1f       	adc	r24, r24
     744:	99 1f       	adc	r25, r25
     746:	1a f0       	brmi	.+6      	; 0x74e <__fixunssfsi+0x22>
     748:	ba 95       	dec	r27
     74a:	c9 f7       	brne	.-14     	; 0x73e <__fixunssfsi+0x12>
     74c:	12 c0       	rjmp	.+36     	; 0x772 <__fixunssfsi+0x46>
     74e:	b1 30       	cpi	r27, 0x01	; 1
     750:	81 f0       	breq	.+32     	; 0x772 <__fixunssfsi+0x46>
     752:	9b d0       	rcall	.+310    	; 0x88a <__fp_zero>
     754:	b1 e0       	ldi	r27, 0x01	; 1
     756:	08 95       	ret
     758:	98 c0       	rjmp	.+304    	; 0x88a <__fp_zero>
     75a:	67 2f       	mov	r22, r23
     75c:	78 2f       	mov	r23, r24
     75e:	88 27       	eor	r24, r24
     760:	b8 5f       	subi	r27, 0xF8	; 248
     762:	39 f0       	breq	.+14     	; 0x772 <__fixunssfsi+0x46>
     764:	b9 3f       	cpi	r27, 0xF9	; 249
     766:	cc f3       	brlt	.-14     	; 0x75a <__fixunssfsi+0x2e>
     768:	86 95       	lsr	r24
     76a:	77 95       	ror	r23
     76c:	67 95       	ror	r22
     76e:	b3 95       	inc	r27
     770:	d9 f7       	brne	.-10     	; 0x768 <__fixunssfsi+0x3c>
     772:	3e f4       	brtc	.+14     	; 0x782 <__fixunssfsi+0x56>
     774:	90 95       	com	r25
     776:	80 95       	com	r24
     778:	70 95       	com	r23
     77a:	61 95       	neg	r22
     77c:	7f 4f       	sbci	r23, 0xFF	; 255
     77e:	8f 4f       	sbci	r24, 0xFF	; 255
     780:	9f 4f       	sbci	r25, 0xFF	; 255
     782:	08 95       	ret

00000784 <__fp_inf>:
     784:	97 f9       	bld	r25, 7
     786:	9f 67       	ori	r25, 0x7F	; 127
     788:	80 e8       	ldi	r24, 0x80	; 128
     78a:	70 e0       	ldi	r23, 0x00	; 0
     78c:	60 e0       	ldi	r22, 0x00	; 0
     78e:	08 95       	ret

00000790 <__fp_nan>:
     790:	9f ef       	ldi	r25, 0xFF	; 255
     792:	80 ec       	ldi	r24, 0xC0	; 192
     794:	08 95       	ret

00000796 <__fp_pscA>:
     796:	00 24       	eor	r0, r0
     798:	0a 94       	dec	r0
     79a:	16 16       	cp	r1, r22
     79c:	17 06       	cpc	r1, r23
     79e:	18 06       	cpc	r1, r24
     7a0:	09 06       	cpc	r0, r25
     7a2:	08 95       	ret

000007a4 <__fp_pscB>:
     7a4:	00 24       	eor	r0, r0
     7a6:	0a 94       	dec	r0
     7a8:	12 16       	cp	r1, r18
     7aa:	13 06       	cpc	r1, r19
     7ac:	14 06       	cpc	r1, r20
     7ae:	05 06       	cpc	r0, r21
     7b0:	08 95       	ret
     7b2:	ee cf       	rjmp	.-36     	; 0x790 <__fp_nan>

000007b4 <__fp_rempio2>:
     7b4:	50 d0       	rcall	.+160    	; 0x856 <__fp_splitA>
     7b6:	e8 f3       	brcs	.-6      	; 0x7b2 <__fp_pscB+0xe>
     7b8:	e8 94       	clt
     7ba:	e0 e0       	ldi	r30, 0x00	; 0
     7bc:	bb 27       	eor	r27, r27
     7be:	9f 57       	subi	r25, 0x7F	; 127
     7c0:	f0 f0       	brcs	.+60     	; 0x7fe <__fp_rempio2+0x4a>
     7c2:	2a ed       	ldi	r18, 0xDA	; 218
     7c4:	3f e0       	ldi	r19, 0x0F	; 15
     7c6:	49 ec       	ldi	r20, 0xC9	; 201
     7c8:	06 c0       	rjmp	.+12     	; 0x7d6 <__fp_rempio2+0x22>
     7ca:	ee 0f       	add	r30, r30
     7cc:	bb 0f       	add	r27, r27
     7ce:	66 1f       	adc	r22, r22
     7d0:	77 1f       	adc	r23, r23
     7d2:	88 1f       	adc	r24, r24
     7d4:	28 f0       	brcs	.+10     	; 0x7e0 <__fp_rempio2+0x2c>
     7d6:	b2 3a       	cpi	r27, 0xA2	; 162
     7d8:	62 07       	cpc	r22, r18
     7da:	73 07       	cpc	r23, r19
     7dc:	84 07       	cpc	r24, r20
     7de:	28 f0       	brcs	.+10     	; 0x7ea <__fp_rempio2+0x36>
     7e0:	b2 5a       	subi	r27, 0xA2	; 162
     7e2:	62 0b       	sbc	r22, r18
     7e4:	73 0b       	sbc	r23, r19
     7e6:	84 0b       	sbc	r24, r20
     7e8:	e3 95       	inc	r30
     7ea:	9a 95       	dec	r25
     7ec:	72 f7       	brpl	.-36     	; 0x7ca <__fp_rempio2+0x16>
     7ee:	80 38       	cpi	r24, 0x80	; 128
     7f0:	30 f4       	brcc	.+12     	; 0x7fe <__fp_rempio2+0x4a>
     7f2:	9a 95       	dec	r25
     7f4:	bb 0f       	add	r27, r27
     7f6:	66 1f       	adc	r22, r22
     7f8:	77 1f       	adc	r23, r23
     7fa:	88 1f       	adc	r24, r24
     7fc:	d2 f7       	brpl	.-12     	; 0x7f2 <__fp_rempio2+0x3e>
     7fe:	90 48       	sbci	r25, 0x80	; 128
     800:	b6 c0       	rjmp	.+364    	; 0x96e <__fp_mpack_finite>

00000802 <__fp_round>:
     802:	09 2e       	mov	r0, r25
     804:	03 94       	inc	r0
     806:	00 0c       	add	r0, r0
     808:	11 f4       	brne	.+4      	; 0x80e <__fp_round+0xc>
     80a:	88 23       	and	r24, r24
     80c:	52 f0       	brmi	.+20     	; 0x822 <__fp_round+0x20>
     80e:	bb 0f       	add	r27, r27
     810:	40 f4       	brcc	.+16     	; 0x822 <__fp_round+0x20>
     812:	bf 2b       	or	r27, r31
     814:	11 f4       	brne	.+4      	; 0x81a <__fp_round+0x18>
     816:	60 ff       	sbrs	r22, 0
     818:	04 c0       	rjmp	.+8      	; 0x822 <__fp_round+0x20>
     81a:	6f 5f       	subi	r22, 0xFF	; 255
     81c:	7f 4f       	sbci	r23, 0xFF	; 255
     81e:	8f 4f       	sbci	r24, 0xFF	; 255
     820:	9f 4f       	sbci	r25, 0xFF	; 255
     822:	08 95       	ret

00000824 <__fp_sinus>:
     824:	ef 93       	push	r30
     826:	e0 ff       	sbrs	r30, 0
     828:	06 c0       	rjmp	.+12     	; 0x836 <__fp_sinus+0x12>
     82a:	a2 ea       	ldi	r26, 0xA2	; 162
     82c:	2a ed       	ldi	r18, 0xDA	; 218
     82e:	3f e0       	ldi	r19, 0x0F	; 15
     830:	49 ec       	ldi	r20, 0xC9	; 201
     832:	5f eb       	ldi	r21, 0xBF	; 191
     834:	20 df       	rcall	.-448    	; 0x676 <__addsf3x>
     836:	e5 df       	rcall	.-54     	; 0x802 <__fp_round>
     838:	0f 90       	pop	r0
     83a:	03 94       	inc	r0
     83c:	01 fc       	sbrc	r0, 1
     83e:	90 58       	subi	r25, 0x80	; 128
     840:	e4 ee       	ldi	r30, 0xE4	; 228
     842:	f0 e0       	ldi	r31, 0x00	; 0
     844:	a0 c0       	rjmp	.+320    	; 0x986 <__fp_powsodd>

00000846 <__fp_split3>:
     846:	57 fd       	sbrc	r21, 7
     848:	90 58       	subi	r25, 0x80	; 128
     84a:	44 0f       	add	r20, r20
     84c:	55 1f       	adc	r21, r21
     84e:	59 f0       	breq	.+22     	; 0x866 <__fp_splitA+0x10>
     850:	5f 3f       	cpi	r21, 0xFF	; 255
     852:	71 f0       	breq	.+28     	; 0x870 <__fp_splitA+0x1a>
     854:	47 95       	ror	r20

00000856 <__fp_splitA>:
     856:	88 0f       	add	r24, r24
     858:	97 fb       	bst	r25, 7
     85a:	99 1f       	adc	r25, r25
     85c:	61 f0       	breq	.+24     	; 0x876 <__fp_splitA+0x20>
     85e:	9f 3f       	cpi	r25, 0xFF	; 255
     860:	79 f0       	breq	.+30     	; 0x880 <__fp_splitA+0x2a>
     862:	87 95       	ror	r24
     864:	08 95       	ret
     866:	12 16       	cp	r1, r18
     868:	13 06       	cpc	r1, r19
     86a:	14 06       	cpc	r1, r20
     86c:	55 1f       	adc	r21, r21
     86e:	f2 cf       	rjmp	.-28     	; 0x854 <__fp_split3+0xe>
     870:	46 95       	lsr	r20
     872:	f1 df       	rcall	.-30     	; 0x856 <__fp_splitA>
     874:	08 c0       	rjmp	.+16     	; 0x886 <__fp_splitA+0x30>
     876:	16 16       	cp	r1, r22
     878:	17 06       	cpc	r1, r23
     87a:	18 06       	cpc	r1, r24
     87c:	99 1f       	adc	r25, r25
     87e:	f1 cf       	rjmp	.-30     	; 0x862 <__fp_splitA+0xc>
     880:	86 95       	lsr	r24
     882:	71 05       	cpc	r23, r1
     884:	61 05       	cpc	r22, r1
     886:	08 94       	sec
     888:	08 95       	ret

0000088a <__fp_zero>:
     88a:	e8 94       	clt

0000088c <__fp_szero>:
     88c:	bb 27       	eor	r27, r27
     88e:	66 27       	eor	r22, r22
     890:	77 27       	eor	r23, r23
     892:	cb 01       	movw	r24, r22
     894:	97 f9       	bld	r25, 7
     896:	08 95       	ret

00000898 <__mulsf3>:
     898:	0b d0       	rcall	.+22     	; 0x8b0 <__mulsf3x>
     89a:	b3 cf       	rjmp	.-154    	; 0x802 <__fp_round>
     89c:	7c df       	rcall	.-264    	; 0x796 <__fp_pscA>
     89e:	28 f0       	brcs	.+10     	; 0x8aa <__mulsf3+0x12>
     8a0:	81 df       	rcall	.-254    	; 0x7a4 <__fp_pscB>
     8a2:	18 f0       	brcs	.+6      	; 0x8aa <__mulsf3+0x12>
     8a4:	95 23       	and	r25, r21
     8a6:	09 f0       	breq	.+2      	; 0x8aa <__mulsf3+0x12>
     8a8:	6d cf       	rjmp	.-294    	; 0x784 <__fp_inf>
     8aa:	72 cf       	rjmp	.-284    	; 0x790 <__fp_nan>
     8ac:	11 24       	eor	r1, r1
     8ae:	ee cf       	rjmp	.-36     	; 0x88c <__fp_szero>

000008b0 <__mulsf3x>:
     8b0:	ca df       	rcall	.-108    	; 0x846 <__fp_split3>
     8b2:	a0 f3       	brcs	.-24     	; 0x89c <__mulsf3+0x4>

000008b4 <__mulsf3_pse>:
     8b4:	95 9f       	mul	r25, r21
     8b6:	d1 f3       	breq	.-12     	; 0x8ac <__mulsf3+0x14>
     8b8:	95 0f       	add	r25, r21
     8ba:	50 e0       	ldi	r21, 0x00	; 0
     8bc:	55 1f       	adc	r21, r21
     8be:	62 9f       	mul	r22, r18
     8c0:	f0 01       	movw	r30, r0
     8c2:	72 9f       	mul	r23, r18
     8c4:	bb 27       	eor	r27, r27
     8c6:	f0 0d       	add	r31, r0
     8c8:	b1 1d       	adc	r27, r1
     8ca:	63 9f       	mul	r22, r19
     8cc:	aa 27       	eor	r26, r26
     8ce:	f0 0d       	add	r31, r0
     8d0:	b1 1d       	adc	r27, r1
     8d2:	aa 1f       	adc	r26, r26
     8d4:	64 9f       	mul	r22, r20
     8d6:	66 27       	eor	r22, r22
     8d8:	b0 0d       	add	r27, r0
     8da:	a1 1d       	adc	r26, r1
     8dc:	66 1f       	adc	r22, r22
     8de:	82 9f       	mul	r24, r18
     8e0:	22 27       	eor	r18, r18
     8e2:	b0 0d       	add	r27, r0
     8e4:	a1 1d       	adc	r26, r1
     8e6:	62 1f       	adc	r22, r18
     8e8:	73 9f       	mul	r23, r19
     8ea:	b0 0d       	add	r27, r0
     8ec:	a1 1d       	adc	r26, r1
     8ee:	62 1f       	adc	r22, r18
     8f0:	83 9f       	mul	r24, r19
     8f2:	a0 0d       	add	r26, r0
     8f4:	61 1d       	adc	r22, r1
     8f6:	22 1f       	adc	r18, r18
     8f8:	74 9f       	mul	r23, r20
     8fa:	33 27       	eor	r19, r19
     8fc:	a0 0d       	add	r26, r0
     8fe:	61 1d       	adc	r22, r1
     900:	23 1f       	adc	r18, r19
     902:	84 9f       	mul	r24, r20
     904:	60 0d       	add	r22, r0
     906:	21 1d       	adc	r18, r1
     908:	82 2f       	mov	r24, r18
     90a:	76 2f       	mov	r23, r22
     90c:	6a 2f       	mov	r22, r26
     90e:	11 24       	eor	r1, r1
     910:	9f 57       	subi	r25, 0x7F	; 127
     912:	50 40       	sbci	r21, 0x00	; 0
     914:	8a f0       	brmi	.+34     	; 0x938 <__mulsf3_pse+0x84>
     916:	e1 f0       	breq	.+56     	; 0x950 <__mulsf3_pse+0x9c>
     918:	88 23       	and	r24, r24
     91a:	4a f0       	brmi	.+18     	; 0x92e <__mulsf3_pse+0x7a>
     91c:	ee 0f       	add	r30, r30
     91e:	ff 1f       	adc	r31, r31
     920:	bb 1f       	adc	r27, r27
     922:	66 1f       	adc	r22, r22
     924:	77 1f       	adc	r23, r23
     926:	88 1f       	adc	r24, r24
     928:	91 50       	subi	r25, 0x01	; 1
     92a:	50 40       	sbci	r21, 0x00	; 0
     92c:	a9 f7       	brne	.-22     	; 0x918 <__mulsf3_pse+0x64>
     92e:	9e 3f       	cpi	r25, 0xFE	; 254
     930:	51 05       	cpc	r21, r1
     932:	70 f0       	brcs	.+28     	; 0x950 <__mulsf3_pse+0x9c>
     934:	27 cf       	rjmp	.-434    	; 0x784 <__fp_inf>
     936:	aa cf       	rjmp	.-172    	; 0x88c <__fp_szero>
     938:	5f 3f       	cpi	r21, 0xFF	; 255
     93a:	ec f3       	brlt	.-6      	; 0x936 <__mulsf3_pse+0x82>
     93c:	98 3e       	cpi	r25, 0xE8	; 232
     93e:	dc f3       	brlt	.-10     	; 0x936 <__mulsf3_pse+0x82>
     940:	86 95       	lsr	r24
     942:	77 95       	ror	r23
     944:	67 95       	ror	r22
     946:	b7 95       	ror	r27
     948:	f7 95       	ror	r31
     94a:	e7 95       	ror	r30
     94c:	9f 5f       	subi	r25, 0xFF	; 255
     94e:	c1 f7       	brne	.-16     	; 0x940 <__mulsf3_pse+0x8c>
     950:	fe 2b       	or	r31, r30
     952:	88 0f       	add	r24, r24
     954:	91 1d       	adc	r25, r1
     956:	96 95       	lsr	r25
     958:	87 95       	ror	r24
     95a:	97 f9       	bld	r25, 7
     95c:	08 95       	ret

0000095e <sin>:
     95e:	9f 93       	push	r25
     960:	29 df       	rcall	.-430    	; 0x7b4 <__fp_rempio2>
     962:	0f 90       	pop	r0
     964:	07 fc       	sbrc	r0, 7
     966:	ee 5f       	subi	r30, 0xFE	; 254
     968:	5d cf       	rjmp	.-326    	; 0x824 <__fp_sinus>

0000096a <__fp_mpack>:
     96a:	9f 3f       	cpi	r25, 0xFF	; 255
     96c:	31 f0       	breq	.+12     	; 0x97a <__fp_mpack_finite+0xc>

0000096e <__fp_mpack_finite>:
     96e:	91 50       	subi	r25, 0x01	; 1
     970:	20 f4       	brcc	.+8      	; 0x97a <__fp_mpack_finite+0xc>
     972:	87 95       	ror	r24
     974:	77 95       	ror	r23
     976:	67 95       	ror	r22
     978:	b7 95       	ror	r27
     97a:	88 0f       	add	r24, r24
     97c:	91 1d       	adc	r25, r1
     97e:	96 95       	lsr	r25
     980:	87 95       	ror	r24
     982:	97 f9       	bld	r25, 7
     984:	08 95       	ret

00000986 <__fp_powsodd>:
     986:	9f 93       	push	r25
     988:	8f 93       	push	r24
     98a:	7f 93       	push	r23
     98c:	6f 93       	push	r22
     98e:	ff 93       	push	r31
     990:	ef 93       	push	r30
     992:	9b 01       	movw	r18, r22
     994:	ac 01       	movw	r20, r24
     996:	80 df       	rcall	.-256    	; 0x898 <__mulsf3>
     998:	ef 91       	pop	r30
     99a:	ff 91       	pop	r31
     99c:	05 d0       	rcall	.+10     	; 0x9a8 <__fp_powser>
     99e:	2f 91       	pop	r18
     9a0:	3f 91       	pop	r19
     9a2:	4f 91       	pop	r20
     9a4:	5f 91       	pop	r21
     9a6:	78 cf       	rjmp	.-272    	; 0x898 <__mulsf3>

000009a8 <__fp_powser>:
     9a8:	df 93       	push	r29
     9aa:	cf 93       	push	r28
     9ac:	1f 93       	push	r17
     9ae:	0f 93       	push	r16
     9b0:	ff 92       	push	r15
     9b2:	ef 92       	push	r14
     9b4:	df 92       	push	r13
     9b6:	7b 01       	movw	r14, r22
     9b8:	8c 01       	movw	r16, r24
     9ba:	68 94       	set
     9bc:	05 c0       	rjmp	.+10     	; 0x9c8 <__fp_powser+0x20>
     9be:	da 2e       	mov	r13, r26
     9c0:	ef 01       	movw	r28, r30
     9c2:	76 df       	rcall	.-276    	; 0x8b0 <__mulsf3x>
     9c4:	fe 01       	movw	r30, r28
     9c6:	e8 94       	clt
     9c8:	a5 91       	lpm	r26, Z+
     9ca:	25 91       	lpm	r18, Z+
     9cc:	35 91       	lpm	r19, Z+
     9ce:	45 91       	lpm	r20, Z+
     9d0:	55 91       	lpm	r21, Z+
     9d2:	ae f3       	brts	.-22     	; 0x9be <__fp_powser+0x16>
     9d4:	ef 01       	movw	r28, r30
     9d6:	4f de       	rcall	.-866    	; 0x676 <__addsf3x>
     9d8:	fe 01       	movw	r30, r28
     9da:	97 01       	movw	r18, r14
     9dc:	a8 01       	movw	r20, r16
     9de:	da 94       	dec	r13
     9e0:	79 f7       	brne	.-34     	; 0x9c0 <__fp_powser+0x18>
     9e2:	df 90       	pop	r13
     9e4:	ef 90       	pop	r14
     9e6:	ff 90       	pop	r15
     9e8:	0f 91       	pop	r16
     9ea:	1f 91       	pop	r17
     9ec:	cf 91       	pop	r28
     9ee:	df 91       	pop	r29
     9f0:	08 95       	ret

000009f2 <atof>:
     9f2:	66 27       	eor	r22, r22
     9f4:	77 27       	eor	r23, r23
     9f6:	4a c2       	rjmp	.+1172   	; 0xe8c <strtod>

000009f8 <strtok>:
     9f8:	44 e3       	ldi	r20, 0x34	; 52
     9fa:	52 e0       	ldi	r21, 0x02	; 2
     9fc:	10 c0       	rjmp	.+32     	; 0xa1e <strtok_r>

000009fe <strncat>:
     9fe:	fb 01       	movw	r30, r22
     a00:	dc 01       	movw	r26, r24
     a02:	0d 90       	ld	r0, X+
     a04:	00 20       	and	r0, r0
     a06:	e9 f7       	brne	.-6      	; 0xa02 <strncat+0x4>
     a08:	11 97       	sbiw	r26, 0x01	; 1
     a0a:	41 50       	subi	r20, 0x01	; 1
     a0c:	50 40       	sbci	r21, 0x00	; 0
     a0e:	28 f0       	brcs	.+10     	; 0xa1a <strncat+0x1c>
     a10:	01 90       	ld	r0, Z+
     a12:	00 20       	and	r0, r0
     a14:	0d 92       	st	X+, r0
     a16:	c9 f7       	brne	.-14     	; 0xa0a <strncat+0xc>
     a18:	08 95       	ret
     a1a:	1c 92       	st	X, r1
     a1c:	08 95       	ret

00000a1e <strtok_r>:
     a1e:	fa 01       	movw	r30, r20
     a20:	a1 91       	ld	r26, Z+
     a22:	b0 81       	ld	r27, Z
     a24:	00 97       	sbiw	r24, 0x00	; 0
     a26:	19 f4       	brne	.+6      	; 0xa2e <strtok_r+0x10>
     a28:	10 97       	sbiw	r26, 0x00	; 0
     a2a:	e1 f0       	breq	.+56     	; 0xa64 <strtok_r+0x46>
     a2c:	cd 01       	movw	r24, r26
     a2e:	dc 01       	movw	r26, r24
     a30:	cd 01       	movw	r24, r26
     a32:	0d 90       	ld	r0, X+
     a34:	00 20       	and	r0, r0
     a36:	11 f4       	brne	.+4      	; 0xa3c <strtok_r+0x1e>
     a38:	c0 01       	movw	r24, r0
     a3a:	13 c0       	rjmp	.+38     	; 0xa62 <strtok_r+0x44>
     a3c:	fb 01       	movw	r30, r22
     a3e:	21 91       	ld	r18, Z+
     a40:	22 23       	and	r18, r18
     a42:	19 f0       	breq	.+6      	; 0xa4a <strtok_r+0x2c>
     a44:	20 15       	cp	r18, r0
     a46:	d9 f7       	brne	.-10     	; 0xa3e <strtok_r+0x20>
     a48:	f3 cf       	rjmp	.-26     	; 0xa30 <strtok_r+0x12>
     a4a:	fb 01       	movw	r30, r22
     a4c:	21 91       	ld	r18, Z+
     a4e:	20 15       	cp	r18, r0
     a50:	19 f4       	brne	.+6      	; 0xa58 <strtok_r+0x3a>
     a52:	1e 92       	st	-X, r1
     a54:	11 96       	adiw	r26, 0x01	; 1
     a56:	06 c0       	rjmp	.+12     	; 0xa64 <strtok_r+0x46>
     a58:	22 23       	and	r18, r18
     a5a:	c1 f7       	brne	.-16     	; 0xa4c <strtok_r+0x2e>
     a5c:	0d 90       	ld	r0, X+
     a5e:	00 20       	and	r0, r0
     a60:	a1 f7       	brne	.-24     	; 0xa4a <strtok_r+0x2c>
     a62:	d0 01       	movw	r26, r0
     a64:	fa 01       	movw	r30, r20
     a66:	a1 93       	st	Z+, r26
     a68:	b0 83       	st	Z, r27
     a6a:	08 95       	ret

00000a6c <printf>:
     a6c:	cf 93       	push	r28
     a6e:	df 93       	push	r29
     a70:	cd b7       	in	r28, 0x3d	; 61
     a72:	de b7       	in	r29, 0x3e	; 62
     a74:	ae 01       	movw	r20, r28
     a76:	4a 5f       	subi	r20, 0xFA	; 250
     a78:	5f 4f       	sbci	r21, 0xFF	; 255
     a7a:	fa 01       	movw	r30, r20
     a7c:	61 91       	ld	r22, Z+
     a7e:	71 91       	ld	r23, Z+
     a80:	af 01       	movw	r20, r30
     a82:	80 91 62 02 	lds	r24, 0x0262	; 0x800262 <__iob+0x2>
     a86:	90 91 63 02 	lds	r25, 0x0263	; 0x800263 <__iob+0x3>
     a8a:	03 d0       	rcall	.+6      	; 0xa92 <vfprintf>
     a8c:	df 91       	pop	r29
     a8e:	cf 91       	pop	r28
     a90:	08 95       	ret

00000a92 <vfprintf>:
     a92:	2f 92       	push	r2
     a94:	3f 92       	push	r3
     a96:	4f 92       	push	r4
     a98:	5f 92       	push	r5
     a9a:	6f 92       	push	r6
     a9c:	7f 92       	push	r7
     a9e:	8f 92       	push	r8
     aa0:	9f 92       	push	r9
     aa2:	af 92       	push	r10
     aa4:	bf 92       	push	r11
     aa6:	cf 92       	push	r12
     aa8:	df 92       	push	r13
     aaa:	ef 92       	push	r14
     aac:	ff 92       	push	r15
     aae:	0f 93       	push	r16
     ab0:	1f 93       	push	r17
     ab2:	cf 93       	push	r28
     ab4:	df 93       	push	r29
     ab6:	cd b7       	in	r28, 0x3d	; 61
     ab8:	de b7       	in	r29, 0x3e	; 62
     aba:	2b 97       	sbiw	r28, 0x0b	; 11
     abc:	0f b6       	in	r0, 0x3f	; 63
     abe:	f8 94       	cli
     ac0:	de bf       	out	0x3e, r29	; 62
     ac2:	0f be       	out	0x3f, r0	; 63
     ac4:	cd bf       	out	0x3d, r28	; 61
     ac6:	6c 01       	movw	r12, r24
     ac8:	7b 01       	movw	r14, r22
     aca:	8a 01       	movw	r16, r20
     acc:	fc 01       	movw	r30, r24
     ace:	17 82       	std	Z+7, r1	; 0x07
     ad0:	16 82       	std	Z+6, r1	; 0x06
     ad2:	83 81       	ldd	r24, Z+3	; 0x03
     ad4:	81 ff       	sbrs	r24, 1
     ad6:	bf c1       	rjmp	.+894    	; 0xe56 <vfprintf+0x3c4>
     ad8:	ce 01       	movw	r24, r28
     ada:	01 96       	adiw	r24, 0x01	; 1
     adc:	3c 01       	movw	r6, r24
     ade:	f6 01       	movw	r30, r12
     ae0:	93 81       	ldd	r25, Z+3	; 0x03
     ae2:	f7 01       	movw	r30, r14
     ae4:	93 fd       	sbrc	r25, 3
     ae6:	85 91       	lpm	r24, Z+
     ae8:	93 ff       	sbrs	r25, 3
     aea:	81 91       	ld	r24, Z+
     aec:	7f 01       	movw	r14, r30
     aee:	88 23       	and	r24, r24
     af0:	09 f4       	brne	.+2      	; 0xaf4 <vfprintf+0x62>
     af2:	ad c1       	rjmp	.+858    	; 0xe4e <vfprintf+0x3bc>
     af4:	85 32       	cpi	r24, 0x25	; 37
     af6:	39 f4       	brne	.+14     	; 0xb06 <vfprintf+0x74>
     af8:	93 fd       	sbrc	r25, 3
     afa:	85 91       	lpm	r24, Z+
     afc:	93 ff       	sbrs	r25, 3
     afe:	81 91       	ld	r24, Z+
     b00:	7f 01       	movw	r14, r30
     b02:	85 32       	cpi	r24, 0x25	; 37
     b04:	21 f4       	brne	.+8      	; 0xb0e <vfprintf+0x7c>
     b06:	b6 01       	movw	r22, r12
     b08:	90 e0       	ldi	r25, 0x00	; 0
     b0a:	49 d3       	rcall	.+1682   	; 0x119e <fputc>
     b0c:	e8 cf       	rjmp	.-48     	; 0xade <vfprintf+0x4c>
     b0e:	91 2c       	mov	r9, r1
     b10:	21 2c       	mov	r2, r1
     b12:	31 2c       	mov	r3, r1
     b14:	ff e1       	ldi	r31, 0x1F	; 31
     b16:	f3 15       	cp	r31, r3
     b18:	d8 f0       	brcs	.+54     	; 0xb50 <vfprintf+0xbe>
     b1a:	8b 32       	cpi	r24, 0x2B	; 43
     b1c:	79 f0       	breq	.+30     	; 0xb3c <vfprintf+0xaa>
     b1e:	38 f4       	brcc	.+14     	; 0xb2e <vfprintf+0x9c>
     b20:	80 32       	cpi	r24, 0x20	; 32
     b22:	79 f0       	breq	.+30     	; 0xb42 <vfprintf+0xb0>
     b24:	83 32       	cpi	r24, 0x23	; 35
     b26:	a1 f4       	brne	.+40     	; 0xb50 <vfprintf+0xbe>
     b28:	23 2d       	mov	r18, r3
     b2a:	20 61       	ori	r18, 0x10	; 16
     b2c:	1d c0       	rjmp	.+58     	; 0xb68 <vfprintf+0xd6>
     b2e:	8d 32       	cpi	r24, 0x2D	; 45
     b30:	61 f0       	breq	.+24     	; 0xb4a <vfprintf+0xb8>
     b32:	80 33       	cpi	r24, 0x30	; 48
     b34:	69 f4       	brne	.+26     	; 0xb50 <vfprintf+0xbe>
     b36:	23 2d       	mov	r18, r3
     b38:	21 60       	ori	r18, 0x01	; 1
     b3a:	16 c0       	rjmp	.+44     	; 0xb68 <vfprintf+0xd6>
     b3c:	83 2d       	mov	r24, r3
     b3e:	82 60       	ori	r24, 0x02	; 2
     b40:	38 2e       	mov	r3, r24
     b42:	e3 2d       	mov	r30, r3
     b44:	e4 60       	ori	r30, 0x04	; 4
     b46:	3e 2e       	mov	r3, r30
     b48:	2a c0       	rjmp	.+84     	; 0xb9e <vfprintf+0x10c>
     b4a:	f3 2d       	mov	r31, r3
     b4c:	f8 60       	ori	r31, 0x08	; 8
     b4e:	1d c0       	rjmp	.+58     	; 0xb8a <vfprintf+0xf8>
     b50:	37 fc       	sbrc	r3, 7
     b52:	2d c0       	rjmp	.+90     	; 0xbae <vfprintf+0x11c>
     b54:	20 ed       	ldi	r18, 0xD0	; 208
     b56:	28 0f       	add	r18, r24
     b58:	2a 30       	cpi	r18, 0x0A	; 10
     b5a:	40 f0       	brcs	.+16     	; 0xb6c <vfprintf+0xda>
     b5c:	8e 32       	cpi	r24, 0x2E	; 46
     b5e:	b9 f4       	brne	.+46     	; 0xb8e <vfprintf+0xfc>
     b60:	36 fc       	sbrc	r3, 6
     b62:	75 c1       	rjmp	.+746    	; 0xe4e <vfprintf+0x3bc>
     b64:	23 2d       	mov	r18, r3
     b66:	20 64       	ori	r18, 0x40	; 64
     b68:	32 2e       	mov	r3, r18
     b6a:	19 c0       	rjmp	.+50     	; 0xb9e <vfprintf+0x10c>
     b6c:	36 fe       	sbrs	r3, 6
     b6e:	06 c0       	rjmp	.+12     	; 0xb7c <vfprintf+0xea>
     b70:	8a e0       	ldi	r24, 0x0A	; 10
     b72:	98 9e       	mul	r9, r24
     b74:	20 0d       	add	r18, r0
     b76:	11 24       	eor	r1, r1
     b78:	92 2e       	mov	r9, r18
     b7a:	11 c0       	rjmp	.+34     	; 0xb9e <vfprintf+0x10c>
     b7c:	ea e0       	ldi	r30, 0x0A	; 10
     b7e:	2e 9e       	mul	r2, r30
     b80:	20 0d       	add	r18, r0
     b82:	11 24       	eor	r1, r1
     b84:	22 2e       	mov	r2, r18
     b86:	f3 2d       	mov	r31, r3
     b88:	f0 62       	ori	r31, 0x20	; 32
     b8a:	3f 2e       	mov	r3, r31
     b8c:	08 c0       	rjmp	.+16     	; 0xb9e <vfprintf+0x10c>
     b8e:	8c 36       	cpi	r24, 0x6C	; 108
     b90:	21 f4       	brne	.+8      	; 0xb9a <vfprintf+0x108>
     b92:	83 2d       	mov	r24, r3
     b94:	80 68       	ori	r24, 0x80	; 128
     b96:	38 2e       	mov	r3, r24
     b98:	02 c0       	rjmp	.+4      	; 0xb9e <vfprintf+0x10c>
     b9a:	88 36       	cpi	r24, 0x68	; 104
     b9c:	41 f4       	brne	.+16     	; 0xbae <vfprintf+0x11c>
     b9e:	f7 01       	movw	r30, r14
     ba0:	93 fd       	sbrc	r25, 3
     ba2:	85 91       	lpm	r24, Z+
     ba4:	93 ff       	sbrs	r25, 3
     ba6:	81 91       	ld	r24, Z+
     ba8:	7f 01       	movw	r14, r30
     baa:	81 11       	cpse	r24, r1
     bac:	b3 cf       	rjmp	.-154    	; 0xb14 <vfprintf+0x82>
     bae:	98 2f       	mov	r25, r24
     bb0:	9f 7d       	andi	r25, 0xDF	; 223
     bb2:	95 54       	subi	r25, 0x45	; 69
     bb4:	93 30       	cpi	r25, 0x03	; 3
     bb6:	28 f4       	brcc	.+10     	; 0xbc2 <vfprintf+0x130>
     bb8:	0c 5f       	subi	r16, 0xFC	; 252
     bba:	1f 4f       	sbci	r17, 0xFF	; 255
     bbc:	9f e3       	ldi	r25, 0x3F	; 63
     bbe:	99 83       	std	Y+1, r25	; 0x01
     bc0:	0d c0       	rjmp	.+26     	; 0xbdc <vfprintf+0x14a>
     bc2:	83 36       	cpi	r24, 0x63	; 99
     bc4:	31 f0       	breq	.+12     	; 0xbd2 <vfprintf+0x140>
     bc6:	83 37       	cpi	r24, 0x73	; 115
     bc8:	71 f0       	breq	.+28     	; 0xbe6 <vfprintf+0x154>
     bca:	83 35       	cpi	r24, 0x53	; 83
     bcc:	09 f0       	breq	.+2      	; 0xbd0 <vfprintf+0x13e>
     bce:	55 c0       	rjmp	.+170    	; 0xc7a <vfprintf+0x1e8>
     bd0:	20 c0       	rjmp	.+64     	; 0xc12 <vfprintf+0x180>
     bd2:	f8 01       	movw	r30, r16
     bd4:	80 81       	ld	r24, Z
     bd6:	89 83       	std	Y+1, r24	; 0x01
     bd8:	0e 5f       	subi	r16, 0xFE	; 254
     bda:	1f 4f       	sbci	r17, 0xFF	; 255
     bdc:	88 24       	eor	r8, r8
     bde:	83 94       	inc	r8
     be0:	91 2c       	mov	r9, r1
     be2:	53 01       	movw	r10, r6
     be4:	12 c0       	rjmp	.+36     	; 0xc0a <vfprintf+0x178>
     be6:	28 01       	movw	r4, r16
     be8:	f2 e0       	ldi	r31, 0x02	; 2
     bea:	4f 0e       	add	r4, r31
     bec:	51 1c       	adc	r5, r1
     bee:	f8 01       	movw	r30, r16
     bf0:	a0 80       	ld	r10, Z
     bf2:	b1 80       	ldd	r11, Z+1	; 0x01
     bf4:	36 fe       	sbrs	r3, 6
     bf6:	03 c0       	rjmp	.+6      	; 0xbfe <vfprintf+0x16c>
     bf8:	69 2d       	mov	r22, r9
     bfa:	70 e0       	ldi	r23, 0x00	; 0
     bfc:	02 c0       	rjmp	.+4      	; 0xc02 <vfprintf+0x170>
     bfe:	6f ef       	ldi	r22, 0xFF	; 255
     c00:	7f ef       	ldi	r23, 0xFF	; 255
     c02:	c5 01       	movw	r24, r10
     c04:	c1 d2       	rcall	.+1410   	; 0x1188 <strnlen>
     c06:	4c 01       	movw	r8, r24
     c08:	82 01       	movw	r16, r4
     c0a:	f3 2d       	mov	r31, r3
     c0c:	ff 77       	andi	r31, 0x7F	; 127
     c0e:	3f 2e       	mov	r3, r31
     c10:	15 c0       	rjmp	.+42     	; 0xc3c <vfprintf+0x1aa>
     c12:	28 01       	movw	r4, r16
     c14:	22 e0       	ldi	r18, 0x02	; 2
     c16:	42 0e       	add	r4, r18
     c18:	51 1c       	adc	r5, r1
     c1a:	f8 01       	movw	r30, r16
     c1c:	a0 80       	ld	r10, Z
     c1e:	b1 80       	ldd	r11, Z+1	; 0x01
     c20:	36 fe       	sbrs	r3, 6
     c22:	03 c0       	rjmp	.+6      	; 0xc2a <vfprintf+0x198>
     c24:	69 2d       	mov	r22, r9
     c26:	70 e0       	ldi	r23, 0x00	; 0
     c28:	02 c0       	rjmp	.+4      	; 0xc2e <vfprintf+0x19c>
     c2a:	6f ef       	ldi	r22, 0xFF	; 255
     c2c:	7f ef       	ldi	r23, 0xFF	; 255
     c2e:	c5 01       	movw	r24, r10
     c30:	a0 d2       	rcall	.+1344   	; 0x1172 <strnlen_P>
     c32:	4c 01       	movw	r8, r24
     c34:	f3 2d       	mov	r31, r3
     c36:	f0 68       	ori	r31, 0x80	; 128
     c38:	3f 2e       	mov	r3, r31
     c3a:	82 01       	movw	r16, r4
     c3c:	33 fc       	sbrc	r3, 3
     c3e:	19 c0       	rjmp	.+50     	; 0xc72 <vfprintf+0x1e0>
     c40:	82 2d       	mov	r24, r2
     c42:	90 e0       	ldi	r25, 0x00	; 0
     c44:	88 16       	cp	r8, r24
     c46:	99 06       	cpc	r9, r25
     c48:	a0 f4       	brcc	.+40     	; 0xc72 <vfprintf+0x1e0>
     c4a:	b6 01       	movw	r22, r12
     c4c:	80 e2       	ldi	r24, 0x20	; 32
     c4e:	90 e0       	ldi	r25, 0x00	; 0
     c50:	a6 d2       	rcall	.+1356   	; 0x119e <fputc>
     c52:	2a 94       	dec	r2
     c54:	f5 cf       	rjmp	.-22     	; 0xc40 <vfprintf+0x1ae>
     c56:	f5 01       	movw	r30, r10
     c58:	37 fc       	sbrc	r3, 7
     c5a:	85 91       	lpm	r24, Z+
     c5c:	37 fe       	sbrs	r3, 7
     c5e:	81 91       	ld	r24, Z+
     c60:	5f 01       	movw	r10, r30
     c62:	b6 01       	movw	r22, r12
     c64:	90 e0       	ldi	r25, 0x00	; 0
     c66:	9b d2       	rcall	.+1334   	; 0x119e <fputc>
     c68:	21 10       	cpse	r2, r1
     c6a:	2a 94       	dec	r2
     c6c:	21 e0       	ldi	r18, 0x01	; 1
     c6e:	82 1a       	sub	r8, r18
     c70:	91 08       	sbc	r9, r1
     c72:	81 14       	cp	r8, r1
     c74:	91 04       	cpc	r9, r1
     c76:	79 f7       	brne	.-34     	; 0xc56 <vfprintf+0x1c4>
     c78:	e1 c0       	rjmp	.+450    	; 0xe3c <vfprintf+0x3aa>
     c7a:	84 36       	cpi	r24, 0x64	; 100
     c7c:	11 f0       	breq	.+4      	; 0xc82 <vfprintf+0x1f0>
     c7e:	89 36       	cpi	r24, 0x69	; 105
     c80:	39 f5       	brne	.+78     	; 0xcd0 <vfprintf+0x23e>
     c82:	f8 01       	movw	r30, r16
     c84:	37 fe       	sbrs	r3, 7
     c86:	07 c0       	rjmp	.+14     	; 0xc96 <vfprintf+0x204>
     c88:	60 81       	ld	r22, Z
     c8a:	71 81       	ldd	r23, Z+1	; 0x01
     c8c:	82 81       	ldd	r24, Z+2	; 0x02
     c8e:	93 81       	ldd	r25, Z+3	; 0x03
     c90:	0c 5f       	subi	r16, 0xFC	; 252
     c92:	1f 4f       	sbci	r17, 0xFF	; 255
     c94:	08 c0       	rjmp	.+16     	; 0xca6 <vfprintf+0x214>
     c96:	60 81       	ld	r22, Z
     c98:	71 81       	ldd	r23, Z+1	; 0x01
     c9a:	07 2e       	mov	r0, r23
     c9c:	00 0c       	add	r0, r0
     c9e:	88 0b       	sbc	r24, r24
     ca0:	99 0b       	sbc	r25, r25
     ca2:	0e 5f       	subi	r16, 0xFE	; 254
     ca4:	1f 4f       	sbci	r17, 0xFF	; 255
     ca6:	f3 2d       	mov	r31, r3
     ca8:	ff 76       	andi	r31, 0x6F	; 111
     caa:	3f 2e       	mov	r3, r31
     cac:	97 ff       	sbrs	r25, 7
     cae:	09 c0       	rjmp	.+18     	; 0xcc2 <vfprintf+0x230>
     cb0:	90 95       	com	r25
     cb2:	80 95       	com	r24
     cb4:	70 95       	com	r23
     cb6:	61 95       	neg	r22
     cb8:	7f 4f       	sbci	r23, 0xFF	; 255
     cba:	8f 4f       	sbci	r24, 0xFF	; 255
     cbc:	9f 4f       	sbci	r25, 0xFF	; 255
     cbe:	f0 68       	ori	r31, 0x80	; 128
     cc0:	3f 2e       	mov	r3, r31
     cc2:	2a e0       	ldi	r18, 0x0A	; 10
     cc4:	30 e0       	ldi	r19, 0x00	; 0
     cc6:	a3 01       	movw	r20, r6
     cc8:	a6 d2       	rcall	.+1356   	; 0x1216 <__ultoa_invert>
     cca:	88 2e       	mov	r8, r24
     ccc:	86 18       	sub	r8, r6
     cce:	44 c0       	rjmp	.+136    	; 0xd58 <vfprintf+0x2c6>
     cd0:	85 37       	cpi	r24, 0x75	; 117
     cd2:	31 f4       	brne	.+12     	; 0xce0 <vfprintf+0x24e>
     cd4:	23 2d       	mov	r18, r3
     cd6:	2f 7e       	andi	r18, 0xEF	; 239
     cd8:	b2 2e       	mov	r11, r18
     cda:	2a e0       	ldi	r18, 0x0A	; 10
     cdc:	30 e0       	ldi	r19, 0x00	; 0
     cde:	25 c0       	rjmp	.+74     	; 0xd2a <vfprintf+0x298>
     ce0:	93 2d       	mov	r25, r3
     ce2:	99 7f       	andi	r25, 0xF9	; 249
     ce4:	b9 2e       	mov	r11, r25
     ce6:	8f 36       	cpi	r24, 0x6F	; 111
     ce8:	c1 f0       	breq	.+48     	; 0xd1a <vfprintf+0x288>
     cea:	18 f4       	brcc	.+6      	; 0xcf2 <vfprintf+0x260>
     cec:	88 35       	cpi	r24, 0x58	; 88
     cee:	79 f0       	breq	.+30     	; 0xd0e <vfprintf+0x27c>
     cf0:	ae c0       	rjmp	.+348    	; 0xe4e <vfprintf+0x3bc>
     cf2:	80 37       	cpi	r24, 0x70	; 112
     cf4:	19 f0       	breq	.+6      	; 0xcfc <vfprintf+0x26a>
     cf6:	88 37       	cpi	r24, 0x78	; 120
     cf8:	21 f0       	breq	.+8      	; 0xd02 <vfprintf+0x270>
     cfa:	a9 c0       	rjmp	.+338    	; 0xe4e <vfprintf+0x3bc>
     cfc:	e9 2f       	mov	r30, r25
     cfe:	e0 61       	ori	r30, 0x10	; 16
     d00:	be 2e       	mov	r11, r30
     d02:	b4 fe       	sbrs	r11, 4
     d04:	0d c0       	rjmp	.+26     	; 0xd20 <vfprintf+0x28e>
     d06:	fb 2d       	mov	r31, r11
     d08:	f4 60       	ori	r31, 0x04	; 4
     d0a:	bf 2e       	mov	r11, r31
     d0c:	09 c0       	rjmp	.+18     	; 0xd20 <vfprintf+0x28e>
     d0e:	34 fe       	sbrs	r3, 4
     d10:	0a c0       	rjmp	.+20     	; 0xd26 <vfprintf+0x294>
     d12:	29 2f       	mov	r18, r25
     d14:	26 60       	ori	r18, 0x06	; 6
     d16:	b2 2e       	mov	r11, r18
     d18:	06 c0       	rjmp	.+12     	; 0xd26 <vfprintf+0x294>
     d1a:	28 e0       	ldi	r18, 0x08	; 8
     d1c:	30 e0       	ldi	r19, 0x00	; 0
     d1e:	05 c0       	rjmp	.+10     	; 0xd2a <vfprintf+0x298>
     d20:	20 e1       	ldi	r18, 0x10	; 16
     d22:	30 e0       	ldi	r19, 0x00	; 0
     d24:	02 c0       	rjmp	.+4      	; 0xd2a <vfprintf+0x298>
     d26:	20 e1       	ldi	r18, 0x10	; 16
     d28:	32 e0       	ldi	r19, 0x02	; 2
     d2a:	f8 01       	movw	r30, r16
     d2c:	b7 fe       	sbrs	r11, 7
     d2e:	07 c0       	rjmp	.+14     	; 0xd3e <vfprintf+0x2ac>
     d30:	60 81       	ld	r22, Z
     d32:	71 81       	ldd	r23, Z+1	; 0x01
     d34:	82 81       	ldd	r24, Z+2	; 0x02
     d36:	93 81       	ldd	r25, Z+3	; 0x03
     d38:	0c 5f       	subi	r16, 0xFC	; 252
     d3a:	1f 4f       	sbci	r17, 0xFF	; 255
     d3c:	06 c0       	rjmp	.+12     	; 0xd4a <vfprintf+0x2b8>
     d3e:	60 81       	ld	r22, Z
     d40:	71 81       	ldd	r23, Z+1	; 0x01
     d42:	80 e0       	ldi	r24, 0x00	; 0
     d44:	90 e0       	ldi	r25, 0x00	; 0
     d46:	0e 5f       	subi	r16, 0xFE	; 254
     d48:	1f 4f       	sbci	r17, 0xFF	; 255
     d4a:	a3 01       	movw	r20, r6
     d4c:	64 d2       	rcall	.+1224   	; 0x1216 <__ultoa_invert>
     d4e:	88 2e       	mov	r8, r24
     d50:	86 18       	sub	r8, r6
     d52:	fb 2d       	mov	r31, r11
     d54:	ff 77       	andi	r31, 0x7F	; 127
     d56:	3f 2e       	mov	r3, r31
     d58:	36 fe       	sbrs	r3, 6
     d5a:	0d c0       	rjmp	.+26     	; 0xd76 <vfprintf+0x2e4>
     d5c:	23 2d       	mov	r18, r3
     d5e:	2e 7f       	andi	r18, 0xFE	; 254
     d60:	a2 2e       	mov	r10, r18
     d62:	89 14       	cp	r8, r9
     d64:	58 f4       	brcc	.+22     	; 0xd7c <vfprintf+0x2ea>
     d66:	34 fe       	sbrs	r3, 4
     d68:	0b c0       	rjmp	.+22     	; 0xd80 <vfprintf+0x2ee>
     d6a:	32 fc       	sbrc	r3, 2
     d6c:	09 c0       	rjmp	.+18     	; 0xd80 <vfprintf+0x2ee>
     d6e:	83 2d       	mov	r24, r3
     d70:	8e 7e       	andi	r24, 0xEE	; 238
     d72:	a8 2e       	mov	r10, r24
     d74:	05 c0       	rjmp	.+10     	; 0xd80 <vfprintf+0x2ee>
     d76:	b8 2c       	mov	r11, r8
     d78:	a3 2c       	mov	r10, r3
     d7a:	03 c0       	rjmp	.+6      	; 0xd82 <vfprintf+0x2f0>
     d7c:	b8 2c       	mov	r11, r8
     d7e:	01 c0       	rjmp	.+2      	; 0xd82 <vfprintf+0x2f0>
     d80:	b9 2c       	mov	r11, r9
     d82:	a4 fe       	sbrs	r10, 4
     d84:	0f c0       	rjmp	.+30     	; 0xda4 <vfprintf+0x312>
     d86:	fe 01       	movw	r30, r28
     d88:	e8 0d       	add	r30, r8
     d8a:	f1 1d       	adc	r31, r1
     d8c:	80 81       	ld	r24, Z
     d8e:	80 33       	cpi	r24, 0x30	; 48
     d90:	21 f4       	brne	.+8      	; 0xd9a <vfprintf+0x308>
     d92:	9a 2d       	mov	r25, r10
     d94:	99 7e       	andi	r25, 0xE9	; 233
     d96:	a9 2e       	mov	r10, r25
     d98:	09 c0       	rjmp	.+18     	; 0xdac <vfprintf+0x31a>
     d9a:	a2 fe       	sbrs	r10, 2
     d9c:	06 c0       	rjmp	.+12     	; 0xdaa <vfprintf+0x318>
     d9e:	b3 94       	inc	r11
     da0:	b3 94       	inc	r11
     da2:	04 c0       	rjmp	.+8      	; 0xdac <vfprintf+0x31a>
     da4:	8a 2d       	mov	r24, r10
     da6:	86 78       	andi	r24, 0x86	; 134
     da8:	09 f0       	breq	.+2      	; 0xdac <vfprintf+0x31a>
     daa:	b3 94       	inc	r11
     dac:	a3 fc       	sbrc	r10, 3
     dae:	10 c0       	rjmp	.+32     	; 0xdd0 <vfprintf+0x33e>
     db0:	a0 fe       	sbrs	r10, 0
     db2:	06 c0       	rjmp	.+12     	; 0xdc0 <vfprintf+0x32e>
     db4:	b2 14       	cp	r11, r2
     db6:	80 f4       	brcc	.+32     	; 0xdd8 <vfprintf+0x346>
     db8:	28 0c       	add	r2, r8
     dba:	92 2c       	mov	r9, r2
     dbc:	9b 18       	sub	r9, r11
     dbe:	0d c0       	rjmp	.+26     	; 0xdda <vfprintf+0x348>
     dc0:	b2 14       	cp	r11, r2
     dc2:	58 f4       	brcc	.+22     	; 0xdda <vfprintf+0x348>
     dc4:	b6 01       	movw	r22, r12
     dc6:	80 e2       	ldi	r24, 0x20	; 32
     dc8:	90 e0       	ldi	r25, 0x00	; 0
     dca:	e9 d1       	rcall	.+978    	; 0x119e <fputc>
     dcc:	b3 94       	inc	r11
     dce:	f8 cf       	rjmp	.-16     	; 0xdc0 <vfprintf+0x32e>
     dd0:	b2 14       	cp	r11, r2
     dd2:	18 f4       	brcc	.+6      	; 0xdda <vfprintf+0x348>
     dd4:	2b 18       	sub	r2, r11
     dd6:	02 c0       	rjmp	.+4      	; 0xddc <vfprintf+0x34a>
     dd8:	98 2c       	mov	r9, r8
     dda:	21 2c       	mov	r2, r1
     ddc:	a4 fe       	sbrs	r10, 4
     dde:	0f c0       	rjmp	.+30     	; 0xdfe <vfprintf+0x36c>
     de0:	b6 01       	movw	r22, r12
     de2:	80 e3       	ldi	r24, 0x30	; 48
     de4:	90 e0       	ldi	r25, 0x00	; 0
     de6:	db d1       	rcall	.+950    	; 0x119e <fputc>
     de8:	a2 fe       	sbrs	r10, 2
     dea:	16 c0       	rjmp	.+44     	; 0xe18 <vfprintf+0x386>
     dec:	a1 fc       	sbrc	r10, 1
     dee:	03 c0       	rjmp	.+6      	; 0xdf6 <vfprintf+0x364>
     df0:	88 e7       	ldi	r24, 0x78	; 120
     df2:	90 e0       	ldi	r25, 0x00	; 0
     df4:	02 c0       	rjmp	.+4      	; 0xdfa <vfprintf+0x368>
     df6:	88 e5       	ldi	r24, 0x58	; 88
     df8:	90 e0       	ldi	r25, 0x00	; 0
     dfa:	b6 01       	movw	r22, r12
     dfc:	0c c0       	rjmp	.+24     	; 0xe16 <vfprintf+0x384>
     dfe:	8a 2d       	mov	r24, r10
     e00:	86 78       	andi	r24, 0x86	; 134
     e02:	51 f0       	breq	.+20     	; 0xe18 <vfprintf+0x386>
     e04:	a1 fe       	sbrs	r10, 1
     e06:	02 c0       	rjmp	.+4      	; 0xe0c <vfprintf+0x37a>
     e08:	8b e2       	ldi	r24, 0x2B	; 43
     e0a:	01 c0       	rjmp	.+2      	; 0xe0e <vfprintf+0x37c>
     e0c:	80 e2       	ldi	r24, 0x20	; 32
     e0e:	a7 fc       	sbrc	r10, 7
     e10:	8d e2       	ldi	r24, 0x2D	; 45
     e12:	b6 01       	movw	r22, r12
     e14:	90 e0       	ldi	r25, 0x00	; 0
     e16:	c3 d1       	rcall	.+902    	; 0x119e <fputc>
     e18:	89 14       	cp	r8, r9
     e1a:	30 f4       	brcc	.+12     	; 0xe28 <vfprintf+0x396>
     e1c:	b6 01       	movw	r22, r12
     e1e:	80 e3       	ldi	r24, 0x30	; 48
     e20:	90 e0       	ldi	r25, 0x00	; 0
     e22:	bd d1       	rcall	.+890    	; 0x119e <fputc>
     e24:	9a 94       	dec	r9
     e26:	f8 cf       	rjmp	.-16     	; 0xe18 <vfprintf+0x386>
     e28:	8a 94       	dec	r8
     e2a:	f3 01       	movw	r30, r6
     e2c:	e8 0d       	add	r30, r8
     e2e:	f1 1d       	adc	r31, r1
     e30:	80 81       	ld	r24, Z
     e32:	b6 01       	movw	r22, r12
     e34:	90 e0       	ldi	r25, 0x00	; 0
     e36:	b3 d1       	rcall	.+870    	; 0x119e <fputc>
     e38:	81 10       	cpse	r8, r1
     e3a:	f6 cf       	rjmp	.-20     	; 0xe28 <vfprintf+0x396>
     e3c:	22 20       	and	r2, r2
     e3e:	09 f4       	brne	.+2      	; 0xe42 <vfprintf+0x3b0>
     e40:	4e ce       	rjmp	.-868    	; 0xade <vfprintf+0x4c>
     e42:	b6 01       	movw	r22, r12
     e44:	80 e2       	ldi	r24, 0x20	; 32
     e46:	90 e0       	ldi	r25, 0x00	; 0
     e48:	aa d1       	rcall	.+852    	; 0x119e <fputc>
     e4a:	2a 94       	dec	r2
     e4c:	f7 cf       	rjmp	.-18     	; 0xe3c <vfprintf+0x3aa>
     e4e:	f6 01       	movw	r30, r12
     e50:	86 81       	ldd	r24, Z+6	; 0x06
     e52:	97 81       	ldd	r25, Z+7	; 0x07
     e54:	02 c0       	rjmp	.+4      	; 0xe5a <vfprintf+0x3c8>
     e56:	8f ef       	ldi	r24, 0xFF	; 255
     e58:	9f ef       	ldi	r25, 0xFF	; 255
     e5a:	2b 96       	adiw	r28, 0x0b	; 11
     e5c:	0f b6       	in	r0, 0x3f	; 63
     e5e:	f8 94       	cli
     e60:	de bf       	out	0x3e, r29	; 62
     e62:	0f be       	out	0x3f, r0	; 63
     e64:	cd bf       	out	0x3d, r28	; 61
     e66:	df 91       	pop	r29
     e68:	cf 91       	pop	r28
     e6a:	1f 91       	pop	r17
     e6c:	0f 91       	pop	r16
     e6e:	ff 90       	pop	r15
     e70:	ef 90       	pop	r14
     e72:	df 90       	pop	r13
     e74:	cf 90       	pop	r12
     e76:	bf 90       	pop	r11
     e78:	af 90       	pop	r10
     e7a:	9f 90       	pop	r9
     e7c:	8f 90       	pop	r8
     e7e:	7f 90       	pop	r7
     e80:	6f 90       	pop	r6
     e82:	5f 90       	pop	r5
     e84:	4f 90       	pop	r4
     e86:	3f 90       	pop	r3
     e88:	2f 90       	pop	r2
     e8a:	08 95       	ret

00000e8c <strtod>:
     e8c:	8f 92       	push	r8
     e8e:	9f 92       	push	r9
     e90:	af 92       	push	r10
     e92:	bf 92       	push	r11
     e94:	cf 92       	push	r12
     e96:	df 92       	push	r13
     e98:	ef 92       	push	r14
     e9a:	ff 92       	push	r15
     e9c:	0f 93       	push	r16
     e9e:	1f 93       	push	r17
     ea0:	cf 93       	push	r28
     ea2:	df 93       	push	r29
     ea4:	ec 01       	movw	r28, r24
     ea6:	6b 01       	movw	r12, r22
     ea8:	61 15       	cp	r22, r1
     eaa:	71 05       	cpc	r23, r1
     eac:	19 f0       	breq	.+6      	; 0xeb4 <strtod+0x28>
     eae:	fb 01       	movw	r30, r22
     eb0:	91 83       	std	Z+1, r25	; 0x01
     eb2:	80 83       	st	Z, r24
     eb4:	7e 01       	movw	r14, r28
     eb6:	ff ef       	ldi	r31, 0xFF	; 255
     eb8:	ef 1a       	sub	r14, r31
     eba:	ff 0a       	sbc	r15, r31
     ebc:	08 81       	ld	r16, Y
     ebe:	80 2f       	mov	r24, r16
     ec0:	90 e0       	ldi	r25, 0x00	; 0
     ec2:	37 d1       	rcall	.+622    	; 0x1132 <isspace>
     ec4:	89 2b       	or	r24, r25
     ec6:	11 f0       	breq	.+4      	; 0xecc <strtod+0x40>
     ec8:	e7 01       	movw	r28, r14
     eca:	f4 cf       	rjmp	.-24     	; 0xeb4 <strtod+0x28>
     ecc:	0d 32       	cpi	r16, 0x2D	; 45
     ece:	39 f4       	brne	.+14     	; 0xede <strtod+0x52>
     ed0:	7e 01       	movw	r14, r28
     ed2:	82 e0       	ldi	r24, 0x02	; 2
     ed4:	e8 0e       	add	r14, r24
     ed6:	f1 1c       	adc	r15, r1
     ed8:	09 81       	ldd	r16, Y+1	; 0x01
     eda:	11 e0       	ldi	r17, 0x01	; 1
     edc:	08 c0       	rjmp	.+16     	; 0xeee <strtod+0x62>
     ede:	0b 32       	cpi	r16, 0x2B	; 43
     ee0:	29 f4       	brne	.+10     	; 0xeec <strtod+0x60>
     ee2:	7e 01       	movw	r14, r28
     ee4:	92 e0       	ldi	r25, 0x02	; 2
     ee6:	e9 0e       	add	r14, r25
     ee8:	f1 1c       	adc	r15, r1
     eea:	09 81       	ldd	r16, Y+1	; 0x01
     eec:	10 e0       	ldi	r17, 0x00	; 0
     eee:	e7 01       	movw	r28, r14
     ef0:	21 97       	sbiw	r28, 0x01	; 1
     ef2:	43 e0       	ldi	r20, 0x03	; 3
     ef4:	50 e0       	ldi	r21, 0x00	; 0
     ef6:	6a e0       	ldi	r22, 0x0A	; 10
     ef8:	71 e0       	ldi	r23, 0x01	; 1
     efa:	ce 01       	movw	r24, r28
     efc:	22 d1       	rcall	.+580    	; 0x1142 <strncasecmp_P>
     efe:	89 2b       	or	r24, r25
     f00:	b9 f4       	brne	.+46     	; 0xf30 <strtod+0xa4>
     f02:	23 96       	adiw	r28, 0x03	; 3
     f04:	45 e0       	ldi	r20, 0x05	; 5
     f06:	50 e0       	ldi	r21, 0x00	; 0
     f08:	65 e0       	ldi	r22, 0x05	; 5
     f0a:	71 e0       	ldi	r23, 0x01	; 1
     f0c:	ce 01       	movw	r24, r28
     f0e:	19 d1       	rcall	.+562    	; 0x1142 <strncasecmp_P>
     f10:	89 2b       	or	r24, r25
     f12:	09 f4       	brne	.+2      	; 0xf16 <strtod+0x8a>
     f14:	25 96       	adiw	r28, 0x05	; 5
     f16:	c1 14       	cp	r12, r1
     f18:	d1 04       	cpc	r13, r1
     f1a:	19 f0       	breq	.+6      	; 0xf22 <strtod+0x96>
     f1c:	f6 01       	movw	r30, r12
     f1e:	d1 83       	std	Z+1, r29	; 0x01
     f20:	c0 83       	st	Z, r28
     f22:	11 11       	cpse	r17, r1
     f24:	f0 c0       	rjmp	.+480    	; 0x1106 <strtod+0x27a>
     f26:	60 e0       	ldi	r22, 0x00	; 0
     f28:	70 e0       	ldi	r23, 0x00	; 0
     f2a:	80 e8       	ldi	r24, 0x80	; 128
     f2c:	9f e7       	ldi	r25, 0x7F	; 127
     f2e:	f4 c0       	rjmp	.+488    	; 0x1118 <strtod+0x28c>
     f30:	43 e0       	ldi	r20, 0x03	; 3
     f32:	50 e0       	ldi	r21, 0x00	; 0
     f34:	62 e0       	ldi	r22, 0x02	; 2
     f36:	71 e0       	ldi	r23, 0x01	; 1
     f38:	ce 01       	movw	r24, r28
     f3a:	03 d1       	rcall	.+518    	; 0x1142 <strncasecmp_P>
     f3c:	89 2b       	or	r24, r25
     f3e:	59 f4       	brne	.+22     	; 0xf56 <strtod+0xca>
     f40:	c1 14       	cp	r12, r1
     f42:	d1 04       	cpc	r13, r1
     f44:	09 f4       	brne	.+2      	; 0xf48 <strtod+0xbc>
     f46:	e4 c0       	rjmp	.+456    	; 0x1110 <strtod+0x284>
     f48:	f2 e0       	ldi	r31, 0x02	; 2
     f4a:	ef 0e       	add	r14, r31
     f4c:	f1 1c       	adc	r15, r1
     f4e:	f6 01       	movw	r30, r12
     f50:	f1 82       	std	Z+1, r15	; 0x01
     f52:	e0 82       	st	Z, r14
     f54:	dd c0       	rjmp	.+442    	; 0x1110 <strtod+0x284>
     f56:	20 e0       	ldi	r18, 0x00	; 0
     f58:	30 e0       	ldi	r19, 0x00	; 0
     f5a:	a9 01       	movw	r20, r18
     f5c:	c0 e0       	ldi	r28, 0x00	; 0
     f5e:	d0 e0       	ldi	r29, 0x00	; 0
     f60:	f7 01       	movw	r30, r14
     f62:	60 ed       	ldi	r22, 0xD0	; 208
     f64:	a6 2e       	mov	r10, r22
     f66:	a0 0e       	add	r10, r16
     f68:	89 e0       	ldi	r24, 0x09	; 9
     f6a:	8a 15       	cp	r24, r10
     f6c:	28 f1       	brcs	.+74     	; 0xfb8 <strtod+0x12c>
     f6e:	91 2f       	mov	r25, r17
     f70:	92 60       	ori	r25, 0x02	; 2
     f72:	b9 2e       	mov	r11, r25
     f74:	81 2f       	mov	r24, r17
     f76:	88 70       	andi	r24, 0x08	; 8
     f78:	12 ff       	sbrs	r17, 2
     f7a:	04 c0       	rjmp	.+8      	; 0xf84 <strtod+0xf8>
     f7c:	81 11       	cpse	r24, r1
     f7e:	23 c0       	rjmp	.+70     	; 0xfc6 <strtod+0x13a>
     f80:	21 96       	adiw	r28, 0x01	; 1
     f82:	21 c0       	rjmp	.+66     	; 0xfc6 <strtod+0x13a>
     f84:	81 11       	cpse	r24, r1
     f86:	21 97       	sbiw	r28, 0x01	; 1
     f88:	a5 e0       	ldi	r26, 0x05	; 5
     f8a:	b0 e0       	ldi	r27, 0x00	; 0
     f8c:	0a d2       	rcall	.+1044   	; 0x13a2 <__muluhisi3>
     f8e:	dc 01       	movw	r26, r24
     f90:	cb 01       	movw	r24, r22
     f92:	88 0f       	add	r24, r24
     f94:	99 1f       	adc	r25, r25
     f96:	aa 1f       	adc	r26, r26
     f98:	bb 1f       	adc	r27, r27
     f9a:	9c 01       	movw	r18, r24
     f9c:	ad 01       	movw	r20, r26
     f9e:	2a 0d       	add	r18, r10
     fa0:	31 1d       	adc	r19, r1
     fa2:	41 1d       	adc	r20, r1
     fa4:	51 1d       	adc	r21, r1
     fa6:	28 39       	cpi	r18, 0x98	; 152
     fa8:	89 e9       	ldi	r24, 0x99	; 153
     faa:	38 07       	cpc	r19, r24
     fac:	48 07       	cpc	r20, r24
     fae:	89 e1       	ldi	r24, 0x19	; 25
     fb0:	58 07       	cpc	r21, r24
     fb2:	48 f0       	brcs	.+18     	; 0xfc6 <strtod+0x13a>
     fb4:	16 60       	ori	r17, 0x06	; 6
     fb6:	06 c0       	rjmp	.+12     	; 0xfc4 <strtod+0x138>
     fb8:	9e ef       	ldi	r25, 0xFE	; 254
     fba:	a9 12       	cpse	r10, r25
     fbc:	0a c0       	rjmp	.+20     	; 0xfd2 <strtod+0x146>
     fbe:	13 fd       	sbrc	r17, 3
     fc0:	40 c0       	rjmp	.+128    	; 0x1042 <strtod+0x1b6>
     fc2:	18 60       	ori	r17, 0x08	; 8
     fc4:	b1 2e       	mov	r11, r17
     fc6:	8f ef       	ldi	r24, 0xFF	; 255
     fc8:	e8 1a       	sub	r14, r24
     fca:	f8 0a       	sbc	r15, r24
     fcc:	00 81       	ld	r16, Z
     fce:	1b 2d       	mov	r17, r11
     fd0:	c7 cf       	rjmp	.-114    	; 0xf60 <strtod+0xd4>
     fd2:	80 2f       	mov	r24, r16
     fd4:	8f 7d       	andi	r24, 0xDF	; 223
     fd6:	85 34       	cpi	r24, 0x45	; 69
     fd8:	a1 f5       	brne	.+104    	; 0x1042 <strtod+0x1b6>
     fda:	80 81       	ld	r24, Z
     fdc:	8d 32       	cpi	r24, 0x2D	; 45
     fde:	11 f4       	brne	.+4      	; 0xfe4 <strtod+0x158>
     fe0:	10 61       	ori	r17, 0x10	; 16
     fe2:	06 c0       	rjmp	.+12     	; 0xff0 <strtod+0x164>
     fe4:	8b 32       	cpi	r24, 0x2B	; 43
     fe6:	21 f0       	breq	.+8      	; 0xff0 <strtod+0x164>
     fe8:	31 96       	adiw	r30, 0x01	; 1
     fea:	61 e0       	ldi	r22, 0x01	; 1
     fec:	70 e0       	ldi	r23, 0x00	; 0
     fee:	04 c0       	rjmp	.+8      	; 0xff8 <strtod+0x16c>
     ff0:	81 81       	ldd	r24, Z+1	; 0x01
     ff2:	32 96       	adiw	r30, 0x02	; 2
     ff4:	62 e0       	ldi	r22, 0x02	; 2
     ff6:	70 e0       	ldi	r23, 0x00	; 0
     ff8:	80 53       	subi	r24, 0x30	; 48
     ffa:	8a 30       	cpi	r24, 0x0A	; 10
     ffc:	18 f0       	brcs	.+6      	; 0x1004 <strtod+0x178>
     ffe:	e6 1b       	sub	r30, r22
    1000:	f7 0b       	sbc	r31, r23
    1002:	1f c0       	rjmp	.+62     	; 0x1042 <strtod+0x1b6>
    1004:	60 e0       	ldi	r22, 0x00	; 0
    1006:	70 e0       	ldi	r23, 0x00	; 0
    1008:	60 38       	cpi	r22, 0x80	; 128
    100a:	9c e0       	ldi	r25, 0x0C	; 12
    100c:	79 07       	cpc	r23, r25
    100e:	5c f4       	brge	.+22     	; 0x1026 <strtod+0x19a>
    1010:	db 01       	movw	r26, r22
    1012:	aa 0f       	add	r26, r26
    1014:	bb 1f       	adc	r27, r27
    1016:	aa 0f       	add	r26, r26
    1018:	bb 1f       	adc	r27, r27
    101a:	6a 0f       	add	r22, r26
    101c:	7b 1f       	adc	r23, r27
    101e:	66 0f       	add	r22, r22
    1020:	77 1f       	adc	r23, r23
    1022:	68 0f       	add	r22, r24
    1024:	71 1d       	adc	r23, r1
    1026:	31 96       	adiw	r30, 0x01	; 1
    1028:	df 01       	movw	r26, r30
    102a:	11 97       	sbiw	r26, 0x01	; 1
    102c:	8c 91       	ld	r24, X
    102e:	80 53       	subi	r24, 0x30	; 48
    1030:	8a 30       	cpi	r24, 0x0A	; 10
    1032:	50 f3       	brcs	.-44     	; 0x1008 <strtod+0x17c>
    1034:	14 ff       	sbrs	r17, 4
    1036:	03 c0       	rjmp	.+6      	; 0x103e <strtod+0x1b2>
    1038:	71 95       	neg	r23
    103a:	61 95       	neg	r22
    103c:	71 09       	sbc	r23, r1
    103e:	c6 0f       	add	r28, r22
    1040:	d7 1f       	adc	r29, r23
    1042:	11 ff       	sbrs	r17, 1
    1044:	08 c0       	rjmp	.+16     	; 0x1056 <strtod+0x1ca>
    1046:	c1 14       	cp	r12, r1
    1048:	d1 04       	cpc	r13, r1
    104a:	29 f0       	breq	.+10     	; 0x1056 <strtod+0x1ca>
    104c:	cf 01       	movw	r24, r30
    104e:	01 97       	sbiw	r24, 0x01	; 1
    1050:	f6 01       	movw	r30, r12
    1052:	91 83       	std	Z+1, r25	; 0x01
    1054:	80 83       	st	Z, r24
    1056:	ca 01       	movw	r24, r20
    1058:	b9 01       	movw	r22, r18
    105a:	3f d1       	rcall	.+638    	; 0x12da <__floatunsisf>
    105c:	21 2f       	mov	r18, r17
    105e:	23 70       	andi	r18, 0x03	; 3
    1060:	23 30       	cpi	r18, 0x03	; 3
    1062:	19 f0       	breq	.+6      	; 0x106a <strtod+0x1de>
    1064:	4b 01       	movw	r8, r22
    1066:	5c 01       	movw	r10, r24
    1068:	06 c0       	rjmp	.+12     	; 0x1076 <strtod+0x1ea>
    106a:	4b 01       	movw	r8, r22
    106c:	5c 01       	movw	r10, r24
    106e:	b7 fa       	bst	r11, 7
    1070:	b0 94       	com	r11
    1072:	b7 f8       	bld	r11, 7
    1074:	b0 94       	com	r11
    1076:	20 e0       	ldi	r18, 0x00	; 0
    1078:	30 e0       	ldi	r19, 0x00	; 0
    107a:	a9 01       	movw	r20, r18
    107c:	c5 01       	movw	r24, r10
    107e:	b4 01       	movw	r22, r8
    1080:	28 d1       	rcall	.+592    	; 0x12d2 <__cmpsf2>
    1082:	88 23       	and	r24, r24
    1084:	09 f4       	brne	.+2      	; 0x1088 <strtod+0x1fc>
    1086:	3c c0       	rjmp	.+120    	; 0x1100 <strtod+0x274>
    1088:	d7 ff       	sbrs	r29, 7
    108a:	06 c0       	rjmp	.+12     	; 0x1098 <strtod+0x20c>
    108c:	d1 95       	neg	r29
    108e:	c1 95       	neg	r28
    1090:	d1 09       	sbc	r29, r1
    1092:	01 e2       	ldi	r16, 0x21	; 33
    1094:	11 e0       	ldi	r17, 0x01	; 1
    1096:	02 c0       	rjmp	.+4      	; 0x109c <strtod+0x210>
    1098:	09 e3       	ldi	r16, 0x39	; 57
    109a:	11 e0       	ldi	r17, 0x01	; 1
    109c:	68 01       	movw	r12, r16
    109e:	f8 e1       	ldi	r31, 0x18	; 24
    10a0:	cf 1a       	sub	r12, r31
    10a2:	d1 08       	sbc	r13, r1
    10a4:	90 e2       	ldi	r25, 0x20	; 32
    10a6:	e9 2e       	mov	r14, r25
    10a8:	f1 2c       	mov	r15, r1
    10aa:	ce 15       	cp	r28, r14
    10ac:	df 05       	cpc	r29, r15
    10ae:	6c f0       	brlt	.+26     	; 0x10ca <strtod+0x23e>
    10b0:	f8 01       	movw	r30, r16
    10b2:	25 91       	lpm	r18, Z+
    10b4:	35 91       	lpm	r19, Z+
    10b6:	45 91       	lpm	r20, Z+
    10b8:	54 91       	lpm	r21, Z
    10ba:	c5 01       	movw	r24, r10
    10bc:	b4 01       	movw	r22, r8
    10be:	ec db       	rcall	.-2088   	; 0x898 <__mulsf3>
    10c0:	4b 01       	movw	r8, r22
    10c2:	5c 01       	movw	r10, r24
    10c4:	ce 19       	sub	r28, r14
    10c6:	df 09       	sbc	r29, r15
    10c8:	f0 cf       	rjmp	.-32     	; 0x10aa <strtod+0x21e>
    10ca:	04 50       	subi	r16, 0x04	; 4
    10cc:	11 09       	sbc	r17, r1
    10ce:	f5 94       	asr	r15
    10d0:	e7 94       	ror	r14
    10d2:	0c 15       	cp	r16, r12
    10d4:	1d 05       	cpc	r17, r13
    10d6:	49 f7       	brne	.-46     	; 0x10aa <strtod+0x21e>
    10d8:	8a 2d       	mov	r24, r10
    10da:	88 0f       	add	r24, r24
    10dc:	8b 2d       	mov	r24, r11
    10de:	88 1f       	adc	r24, r24
    10e0:	8f 3f       	cpi	r24, 0xFF	; 255
    10e2:	41 f0       	breq	.+16     	; 0x10f4 <strtod+0x268>
    10e4:	20 e0       	ldi	r18, 0x00	; 0
    10e6:	30 e0       	ldi	r19, 0x00	; 0
    10e8:	a9 01       	movw	r20, r18
    10ea:	c5 01       	movw	r24, r10
    10ec:	b4 01       	movw	r22, r8
    10ee:	f1 d0       	rcall	.+482    	; 0x12d2 <__cmpsf2>
    10f0:	81 11       	cpse	r24, r1
    10f2:	06 c0       	rjmp	.+12     	; 0x1100 <strtod+0x274>
    10f4:	82 e2       	ldi	r24, 0x22	; 34
    10f6:	90 e0       	ldi	r25, 0x00	; 0
    10f8:	90 93 67 02 	sts	0x0267, r25	; 0x800267 <errno+0x1>
    10fc:	80 93 66 02 	sts	0x0266, r24	; 0x800266 <errno>
    1100:	c5 01       	movw	r24, r10
    1102:	b4 01       	movw	r22, r8
    1104:	09 c0       	rjmp	.+18     	; 0x1118 <strtod+0x28c>
    1106:	60 e0       	ldi	r22, 0x00	; 0
    1108:	70 e0       	ldi	r23, 0x00	; 0
    110a:	80 e8       	ldi	r24, 0x80	; 128
    110c:	9f ef       	ldi	r25, 0xFF	; 255
    110e:	04 c0       	rjmp	.+8      	; 0x1118 <strtod+0x28c>
    1110:	60 e0       	ldi	r22, 0x00	; 0
    1112:	70 e0       	ldi	r23, 0x00	; 0
    1114:	80 ec       	ldi	r24, 0xC0	; 192
    1116:	9f e7       	ldi	r25, 0x7F	; 127
    1118:	df 91       	pop	r29
    111a:	cf 91       	pop	r28
    111c:	1f 91       	pop	r17
    111e:	0f 91       	pop	r16
    1120:	ff 90       	pop	r15
    1122:	ef 90       	pop	r14
    1124:	df 90       	pop	r13
    1126:	cf 90       	pop	r12
    1128:	bf 90       	pop	r11
    112a:	af 90       	pop	r10
    112c:	9f 90       	pop	r9
    112e:	8f 90       	pop	r8
    1130:	08 95       	ret

00001132 <isspace>:
    1132:	91 11       	cpse	r25, r1
    1134:	33 c1       	rjmp	.+614    	; 0x139c <__ctype_isfalse>
    1136:	80 32       	cpi	r24, 0x20	; 32
    1138:	19 f0       	breq	.+6      	; 0x1140 <isspace+0xe>
    113a:	89 50       	subi	r24, 0x09	; 9
    113c:	85 50       	subi	r24, 0x05	; 5
    113e:	d0 f7       	brcc	.-12     	; 0x1134 <isspace+0x2>
    1140:	08 95       	ret

00001142 <strncasecmp_P>:
    1142:	fb 01       	movw	r30, r22
    1144:	dc 01       	movw	r26, r24
    1146:	41 50       	subi	r20, 0x01	; 1
    1148:	50 40       	sbci	r21, 0x00	; 0
    114a:	88 f0       	brcs	.+34     	; 0x116e <strncasecmp_P+0x2c>
    114c:	8d 91       	ld	r24, X+
    114e:	81 34       	cpi	r24, 0x41	; 65
    1150:	1c f0       	brlt	.+6      	; 0x1158 <strncasecmp_P+0x16>
    1152:	8b 35       	cpi	r24, 0x5B	; 91
    1154:	0c f4       	brge	.+2      	; 0x1158 <strncasecmp_P+0x16>
    1156:	80 5e       	subi	r24, 0xE0	; 224
    1158:	65 91       	lpm	r22, Z+
    115a:	61 34       	cpi	r22, 0x41	; 65
    115c:	1c f0       	brlt	.+6      	; 0x1164 <strncasecmp_P+0x22>
    115e:	6b 35       	cpi	r22, 0x5B	; 91
    1160:	0c f4       	brge	.+2      	; 0x1164 <strncasecmp_P+0x22>
    1162:	60 5e       	subi	r22, 0xE0	; 224
    1164:	86 1b       	sub	r24, r22
    1166:	61 11       	cpse	r22, r1
    1168:	71 f3       	breq	.-36     	; 0x1146 <strncasecmp_P+0x4>
    116a:	99 0b       	sbc	r25, r25
    116c:	08 95       	ret
    116e:	88 1b       	sub	r24, r24
    1170:	fc cf       	rjmp	.-8      	; 0x116a <strncasecmp_P+0x28>

00001172 <strnlen_P>:
    1172:	fc 01       	movw	r30, r24
    1174:	05 90       	lpm	r0, Z+
    1176:	61 50       	subi	r22, 0x01	; 1
    1178:	70 40       	sbci	r23, 0x00	; 0
    117a:	01 10       	cpse	r0, r1
    117c:	d8 f7       	brcc	.-10     	; 0x1174 <strnlen_P+0x2>
    117e:	80 95       	com	r24
    1180:	90 95       	com	r25
    1182:	8e 0f       	add	r24, r30
    1184:	9f 1f       	adc	r25, r31
    1186:	08 95       	ret

00001188 <strnlen>:
    1188:	fc 01       	movw	r30, r24
    118a:	61 50       	subi	r22, 0x01	; 1
    118c:	70 40       	sbci	r23, 0x00	; 0
    118e:	01 90       	ld	r0, Z+
    1190:	01 10       	cpse	r0, r1
    1192:	d8 f7       	brcc	.-10     	; 0x118a <strnlen+0x2>
    1194:	80 95       	com	r24
    1196:	90 95       	com	r25
    1198:	8e 0f       	add	r24, r30
    119a:	9f 1f       	adc	r25, r31
    119c:	08 95       	ret

0000119e <fputc>:
    119e:	0f 93       	push	r16
    11a0:	1f 93       	push	r17
    11a2:	cf 93       	push	r28
    11a4:	df 93       	push	r29
    11a6:	fb 01       	movw	r30, r22
    11a8:	23 81       	ldd	r18, Z+3	; 0x03
    11aa:	21 fd       	sbrc	r18, 1
    11ac:	03 c0       	rjmp	.+6      	; 0x11b4 <fputc+0x16>
    11ae:	8f ef       	ldi	r24, 0xFF	; 255
    11b0:	9f ef       	ldi	r25, 0xFF	; 255
    11b2:	2c c0       	rjmp	.+88     	; 0x120c <fputc+0x6e>
    11b4:	22 ff       	sbrs	r18, 2
    11b6:	16 c0       	rjmp	.+44     	; 0x11e4 <fputc+0x46>
    11b8:	46 81       	ldd	r20, Z+6	; 0x06
    11ba:	57 81       	ldd	r21, Z+7	; 0x07
    11bc:	24 81       	ldd	r18, Z+4	; 0x04
    11be:	35 81       	ldd	r19, Z+5	; 0x05
    11c0:	42 17       	cp	r20, r18
    11c2:	53 07       	cpc	r21, r19
    11c4:	44 f4       	brge	.+16     	; 0x11d6 <fputc+0x38>
    11c6:	a0 81       	ld	r26, Z
    11c8:	b1 81       	ldd	r27, Z+1	; 0x01
    11ca:	9d 01       	movw	r18, r26
    11cc:	2f 5f       	subi	r18, 0xFF	; 255
    11ce:	3f 4f       	sbci	r19, 0xFF	; 255
    11d0:	31 83       	std	Z+1, r19	; 0x01
    11d2:	20 83       	st	Z, r18
    11d4:	8c 93       	st	X, r24
    11d6:	26 81       	ldd	r18, Z+6	; 0x06
    11d8:	37 81       	ldd	r19, Z+7	; 0x07
    11da:	2f 5f       	subi	r18, 0xFF	; 255
    11dc:	3f 4f       	sbci	r19, 0xFF	; 255
    11de:	37 83       	std	Z+7, r19	; 0x07
    11e0:	26 83       	std	Z+6, r18	; 0x06
    11e2:	14 c0       	rjmp	.+40     	; 0x120c <fputc+0x6e>
    11e4:	8b 01       	movw	r16, r22
    11e6:	ec 01       	movw	r28, r24
    11e8:	fb 01       	movw	r30, r22
    11ea:	00 84       	ldd	r0, Z+8	; 0x08
    11ec:	f1 85       	ldd	r31, Z+9	; 0x09
    11ee:	e0 2d       	mov	r30, r0
    11f0:	19 95       	eicall
    11f2:	89 2b       	or	r24, r25
    11f4:	e1 f6       	brne	.-72     	; 0x11ae <fputc+0x10>
    11f6:	d8 01       	movw	r26, r16
    11f8:	16 96       	adiw	r26, 0x06	; 6
    11fa:	8d 91       	ld	r24, X+
    11fc:	9c 91       	ld	r25, X
    11fe:	17 97       	sbiw	r26, 0x07	; 7
    1200:	01 96       	adiw	r24, 0x01	; 1
    1202:	17 96       	adiw	r26, 0x07	; 7
    1204:	9c 93       	st	X, r25
    1206:	8e 93       	st	-X, r24
    1208:	16 97       	sbiw	r26, 0x06	; 6
    120a:	ce 01       	movw	r24, r28
    120c:	df 91       	pop	r29
    120e:	cf 91       	pop	r28
    1210:	1f 91       	pop	r17
    1212:	0f 91       	pop	r16
    1214:	08 95       	ret

00001216 <__ultoa_invert>:
    1216:	fa 01       	movw	r30, r20
    1218:	aa 27       	eor	r26, r26
    121a:	28 30       	cpi	r18, 0x08	; 8
    121c:	51 f1       	breq	.+84     	; 0x1272 <__ultoa_invert+0x5c>
    121e:	20 31       	cpi	r18, 0x10	; 16
    1220:	81 f1       	breq	.+96     	; 0x1282 <__ultoa_invert+0x6c>
    1222:	e8 94       	clt
    1224:	6f 93       	push	r22
    1226:	6e 7f       	andi	r22, 0xFE	; 254
    1228:	6e 5f       	subi	r22, 0xFE	; 254
    122a:	7f 4f       	sbci	r23, 0xFF	; 255
    122c:	8f 4f       	sbci	r24, 0xFF	; 255
    122e:	9f 4f       	sbci	r25, 0xFF	; 255
    1230:	af 4f       	sbci	r26, 0xFF	; 255
    1232:	b1 e0       	ldi	r27, 0x01	; 1
    1234:	3e d0       	rcall	.+124    	; 0x12b2 <__ultoa_invert+0x9c>
    1236:	b4 e0       	ldi	r27, 0x04	; 4
    1238:	3c d0       	rcall	.+120    	; 0x12b2 <__ultoa_invert+0x9c>
    123a:	67 0f       	add	r22, r23
    123c:	78 1f       	adc	r23, r24
    123e:	89 1f       	adc	r24, r25
    1240:	9a 1f       	adc	r25, r26
    1242:	a1 1d       	adc	r26, r1
    1244:	68 0f       	add	r22, r24
    1246:	79 1f       	adc	r23, r25
    1248:	8a 1f       	adc	r24, r26
    124a:	91 1d       	adc	r25, r1
    124c:	a1 1d       	adc	r26, r1
    124e:	6a 0f       	add	r22, r26
    1250:	71 1d       	adc	r23, r1
    1252:	81 1d       	adc	r24, r1
    1254:	91 1d       	adc	r25, r1
    1256:	a1 1d       	adc	r26, r1
    1258:	20 d0       	rcall	.+64     	; 0x129a <__ultoa_invert+0x84>
    125a:	09 f4       	brne	.+2      	; 0x125e <__ultoa_invert+0x48>
    125c:	68 94       	set
    125e:	3f 91       	pop	r19
    1260:	2a e0       	ldi	r18, 0x0A	; 10
    1262:	26 9f       	mul	r18, r22
    1264:	11 24       	eor	r1, r1
    1266:	30 19       	sub	r19, r0
    1268:	30 5d       	subi	r19, 0xD0	; 208
    126a:	31 93       	st	Z+, r19
    126c:	de f6       	brtc	.-74     	; 0x1224 <__ultoa_invert+0xe>
    126e:	cf 01       	movw	r24, r30
    1270:	08 95       	ret
    1272:	46 2f       	mov	r20, r22
    1274:	47 70       	andi	r20, 0x07	; 7
    1276:	40 5d       	subi	r20, 0xD0	; 208
    1278:	41 93       	st	Z+, r20
    127a:	b3 e0       	ldi	r27, 0x03	; 3
    127c:	0f d0       	rcall	.+30     	; 0x129c <__ultoa_invert+0x86>
    127e:	c9 f7       	brne	.-14     	; 0x1272 <__ultoa_invert+0x5c>
    1280:	f6 cf       	rjmp	.-20     	; 0x126e <__ultoa_invert+0x58>
    1282:	46 2f       	mov	r20, r22
    1284:	4f 70       	andi	r20, 0x0F	; 15
    1286:	40 5d       	subi	r20, 0xD0	; 208
    1288:	4a 33       	cpi	r20, 0x3A	; 58
    128a:	18 f0       	brcs	.+6      	; 0x1292 <__ultoa_invert+0x7c>
    128c:	49 5d       	subi	r20, 0xD9	; 217
    128e:	31 fd       	sbrc	r19, 1
    1290:	40 52       	subi	r20, 0x20	; 32
    1292:	41 93       	st	Z+, r20
    1294:	02 d0       	rcall	.+4      	; 0x129a <__ultoa_invert+0x84>
    1296:	a9 f7       	brne	.-22     	; 0x1282 <__ultoa_invert+0x6c>
    1298:	ea cf       	rjmp	.-44     	; 0x126e <__ultoa_invert+0x58>
    129a:	b4 e0       	ldi	r27, 0x04	; 4
    129c:	a6 95       	lsr	r26
    129e:	97 95       	ror	r25
    12a0:	87 95       	ror	r24
    12a2:	77 95       	ror	r23
    12a4:	67 95       	ror	r22
    12a6:	ba 95       	dec	r27
    12a8:	c9 f7       	brne	.-14     	; 0x129c <__ultoa_invert+0x86>
    12aa:	00 97       	sbiw	r24, 0x00	; 0
    12ac:	61 05       	cpc	r22, r1
    12ae:	71 05       	cpc	r23, r1
    12b0:	08 95       	ret
    12b2:	9b 01       	movw	r18, r22
    12b4:	ac 01       	movw	r20, r24
    12b6:	0a 2e       	mov	r0, r26
    12b8:	06 94       	lsr	r0
    12ba:	57 95       	ror	r21
    12bc:	47 95       	ror	r20
    12be:	37 95       	ror	r19
    12c0:	27 95       	ror	r18
    12c2:	ba 95       	dec	r27
    12c4:	c9 f7       	brne	.-14     	; 0x12b8 <__ultoa_invert+0xa2>
    12c6:	62 0f       	add	r22, r18
    12c8:	73 1f       	adc	r23, r19
    12ca:	84 1f       	adc	r24, r20
    12cc:	95 1f       	adc	r25, r21
    12ce:	a0 1d       	adc	r26, r0
    12d0:	08 95       	ret

000012d2 <__cmpsf2>:
    12d2:	40 d0       	rcall	.+128    	; 0x1354 <__fp_cmp>
    12d4:	08 f4       	brcc	.+2      	; 0x12d8 <__cmpsf2+0x6>
    12d6:	81 e0       	ldi	r24, 0x01	; 1
    12d8:	08 95       	ret

000012da <__floatunsisf>:
    12da:	e8 94       	clt
    12dc:	09 c0       	rjmp	.+18     	; 0x12f0 <__floatsisf+0x12>

000012de <__floatsisf>:
    12de:	97 fb       	bst	r25, 7
    12e0:	3e f4       	brtc	.+14     	; 0x12f0 <__floatsisf+0x12>
    12e2:	90 95       	com	r25
    12e4:	80 95       	com	r24
    12e6:	70 95       	com	r23
    12e8:	61 95       	neg	r22
    12ea:	7f 4f       	sbci	r23, 0xFF	; 255
    12ec:	8f 4f       	sbci	r24, 0xFF	; 255
    12ee:	9f 4f       	sbci	r25, 0xFF	; 255
    12f0:	99 23       	and	r25, r25
    12f2:	a9 f0       	breq	.+42     	; 0x131e <__floatsisf+0x40>
    12f4:	f9 2f       	mov	r31, r25
    12f6:	96 e9       	ldi	r25, 0x96	; 150
    12f8:	bb 27       	eor	r27, r27
    12fa:	93 95       	inc	r25
    12fc:	f6 95       	lsr	r31
    12fe:	87 95       	ror	r24
    1300:	77 95       	ror	r23
    1302:	67 95       	ror	r22
    1304:	b7 95       	ror	r27
    1306:	f1 11       	cpse	r31, r1
    1308:	f8 cf       	rjmp	.-16     	; 0x12fa <__floatsisf+0x1c>
    130a:	fa f4       	brpl	.+62     	; 0x134a <__floatsisf+0x6c>
    130c:	bb 0f       	add	r27, r27
    130e:	11 f4       	brne	.+4      	; 0x1314 <__floatsisf+0x36>
    1310:	60 ff       	sbrs	r22, 0
    1312:	1b c0       	rjmp	.+54     	; 0x134a <__floatsisf+0x6c>
    1314:	6f 5f       	subi	r22, 0xFF	; 255
    1316:	7f 4f       	sbci	r23, 0xFF	; 255
    1318:	8f 4f       	sbci	r24, 0xFF	; 255
    131a:	9f 4f       	sbci	r25, 0xFF	; 255
    131c:	16 c0       	rjmp	.+44     	; 0x134a <__floatsisf+0x6c>
    131e:	88 23       	and	r24, r24
    1320:	11 f0       	breq	.+4      	; 0x1326 <__floatsisf+0x48>
    1322:	96 e9       	ldi	r25, 0x96	; 150
    1324:	11 c0       	rjmp	.+34     	; 0x1348 <__floatsisf+0x6a>
    1326:	77 23       	and	r23, r23
    1328:	21 f0       	breq	.+8      	; 0x1332 <__floatsisf+0x54>
    132a:	9e e8       	ldi	r25, 0x8E	; 142
    132c:	87 2f       	mov	r24, r23
    132e:	76 2f       	mov	r23, r22
    1330:	05 c0       	rjmp	.+10     	; 0x133c <__floatsisf+0x5e>
    1332:	66 23       	and	r22, r22
    1334:	71 f0       	breq	.+28     	; 0x1352 <__floatsisf+0x74>
    1336:	96 e8       	ldi	r25, 0x86	; 134
    1338:	86 2f       	mov	r24, r22
    133a:	70 e0       	ldi	r23, 0x00	; 0
    133c:	60 e0       	ldi	r22, 0x00	; 0
    133e:	2a f0       	brmi	.+10     	; 0x134a <__floatsisf+0x6c>
    1340:	9a 95       	dec	r25
    1342:	66 0f       	add	r22, r22
    1344:	77 1f       	adc	r23, r23
    1346:	88 1f       	adc	r24, r24
    1348:	da f7       	brpl	.-10     	; 0x1340 <__floatsisf+0x62>
    134a:	88 0f       	add	r24, r24
    134c:	96 95       	lsr	r25
    134e:	87 95       	ror	r24
    1350:	97 f9       	bld	r25, 7
    1352:	08 95       	ret

00001354 <__fp_cmp>:
    1354:	99 0f       	add	r25, r25
    1356:	00 08       	sbc	r0, r0
    1358:	55 0f       	add	r21, r21
    135a:	aa 0b       	sbc	r26, r26
    135c:	e0 e8       	ldi	r30, 0x80	; 128
    135e:	fe ef       	ldi	r31, 0xFE	; 254
    1360:	16 16       	cp	r1, r22
    1362:	17 06       	cpc	r1, r23
    1364:	e8 07       	cpc	r30, r24
    1366:	f9 07       	cpc	r31, r25
    1368:	c0 f0       	brcs	.+48     	; 0x139a <__fp_cmp+0x46>
    136a:	12 16       	cp	r1, r18
    136c:	13 06       	cpc	r1, r19
    136e:	e4 07       	cpc	r30, r20
    1370:	f5 07       	cpc	r31, r21
    1372:	98 f0       	brcs	.+38     	; 0x139a <__fp_cmp+0x46>
    1374:	62 1b       	sub	r22, r18
    1376:	73 0b       	sbc	r23, r19
    1378:	84 0b       	sbc	r24, r20
    137a:	95 0b       	sbc	r25, r21
    137c:	39 f4       	brne	.+14     	; 0x138c <__fp_cmp+0x38>
    137e:	0a 26       	eor	r0, r26
    1380:	61 f0       	breq	.+24     	; 0x139a <__fp_cmp+0x46>
    1382:	23 2b       	or	r18, r19
    1384:	24 2b       	or	r18, r20
    1386:	25 2b       	or	r18, r21
    1388:	21 f4       	brne	.+8      	; 0x1392 <__fp_cmp+0x3e>
    138a:	08 95       	ret
    138c:	0a 26       	eor	r0, r26
    138e:	09 f4       	brne	.+2      	; 0x1392 <__fp_cmp+0x3e>
    1390:	a1 40       	sbci	r26, 0x01	; 1
    1392:	a6 95       	lsr	r26
    1394:	8f ef       	ldi	r24, 0xFF	; 255
    1396:	81 1d       	adc	r24, r1
    1398:	81 1d       	adc	r24, r1
    139a:	08 95       	ret

0000139c <__ctype_isfalse>:
    139c:	99 27       	eor	r25, r25
    139e:	88 27       	eor	r24, r24

000013a0 <__ctype_istrue>:
    13a0:	08 95       	ret

000013a2 <__muluhisi3>:
    13a2:	09 d0       	rcall	.+18     	; 0x13b6 <__umulhisi3>
    13a4:	a5 9f       	mul	r26, r21
    13a6:	90 0d       	add	r25, r0
    13a8:	b4 9f       	mul	r27, r20
    13aa:	90 0d       	add	r25, r0
    13ac:	a4 9f       	mul	r26, r20
    13ae:	80 0d       	add	r24, r0
    13b0:	91 1d       	adc	r25, r1
    13b2:	11 24       	eor	r1, r1
    13b4:	08 95       	ret

000013b6 <__umulhisi3>:
    13b6:	a2 9f       	mul	r26, r18
    13b8:	b0 01       	movw	r22, r0
    13ba:	b3 9f       	mul	r27, r19
    13bc:	c0 01       	movw	r24, r0
    13be:	a3 9f       	mul	r26, r19
    13c0:	70 0d       	add	r23, r0
    13c2:	81 1d       	adc	r24, r1
    13c4:	11 24       	eor	r1, r1
    13c6:	91 1d       	adc	r25, r1
    13c8:	b2 9f       	mul	r27, r18
    13ca:	70 0d       	add	r23, r0
    13cc:	81 1d       	adc	r24, r1
    13ce:	11 24       	eor	r1, r1
    13d0:	91 1d       	adc	r25, r1
    13d2:	08 95       	ret

000013d4 <_exit>:
    13d4:	f8 94       	cli

000013d6 <__stop_program>:
    13d6:	ff cf       	rjmp	.-2      	; 0x13d6 <__stop_program>
